EXPORTS 
	??_R0?AV?$StringHolder@VUrl@cpr@@@cpr@@@8 	 DATA
	??_R0?AV?$_Iosb@H@std@@@8 	 DATA
	??_R0?AV?$_Ref_count@UCurlHolder@cpr@@@std@@@8 	 DATA
	??_R0?AV?$basic_ios@DU?$char_traits@D@std@@@std@@@8 	 DATA
	??_R0?AV?$basic_iostream@DU?$char_traits@D@std@@@std@@@8 	 DATA
	??_R0?AV?$basic_istream@DU?$char_traits@D@std@@@std@@@8 	 DATA
	??_R0?AV?$basic_istringstream@DU?$char_traits@D@std@@V?$allocator@D@2@@std@@@8 	 DATA
	??_R0?AV?$basic_ostream@DU?$char_traits@D@std@@@std@@@8 	 DATA
	??_R0?AV?$basic_streambuf@DU?$char_traits@D@std@@@std@@@8 	 DATA
	??_R0?AV?$basic_stringbuf@DU?$char_traits@D@std@@V?$allocator@D@2@@std@@@8 	 DATA
	??_R0?AV?$basic_stringstream@DU?$char_traits@D@std@@V?$allocator@D@2@@std@@@8 	 DATA
	??_R0?AVEncodedAuthentication@cpr@@@8 	 DATA
	??_R0?AVUrl@cpr@@@8 	 DATA
	??_R0?AV_Ref_count_base@std@@@8 	 DATA
	??_R0?AVbad_alloc@std@@@8 	 DATA
	??_R0?AVbad_array_new_length@std@@@8 	 DATA
	??_R0?AVexception@std@@@8 	 DATA
	??_R0?AVinvalid_argument@std@@@8 	 DATA
	??_R0?AVios_base@std@@@8 	 DATA
	??_R0?AVlogic_error@std@@@8 	 DATA
	??_R0?AVoverflow_error@std@@@8 	 DATA
	??_R0?AVruntime_error@std@@@8 	 DATA
	??_R0?AVunderflow_error@std@@@8 	 DATA
	?curl_easy_init_mutex_@CurlHolder@cpr@@0Vmutex@std@@A 	 DATA
	??$?0$$QEAV?$basic_string@DU?$char_traits@D@std@@V?$allocator@D@2@@std@@$$Z$$V@?$pair@$$CBV?$basic_string@DU?$char_traits@D@std@@V?$allocator@D@2@@std@@V12@@std@@QEAA@Upiecewise_construct_t@1@V?$tuple@$$QEAV?$basic_string@DU?$char_traits@D@std@@V?$allocator@D@2@@std@@@1@V?$tuple@$$V@1@@Z
	??$?0$$V@?$_Compressed_pair@V?$allocator@D@std@@V?$_String_val@U?$_Simple_types@D@std@@@2@$00@std@@QEAA@U_Zero_then_variadic_args_t@1@@Z
	??$?0$$V@?$_Compressed_pair@V?$allocator@U?$_Tree_node@U?$pair@$$CBV?$basic_string@DU?$char_traits@D@std@@V?$allocator@D@2@@std@@V12@@std@@PEAX@std@@@std@@V?$_Tree_val@U?$_Tree_simple_types@U?$pair@$$CBV?$basic_string@DU?$char_traits@D@std@@V?$allocator@D@2@@std@@V12@@std@@@std@@@2@$00@std@@QEAA@U_Zero_then_variadic_args_t@1@@Z
	??$?0$$V@?$_Compressed_pair@V?$allocator@U?$_Tree_node@U?$pair@$$CBV?$basic_string@DU?$char_traits@D@std@@V?$allocator@D@2@@std@@VEncodedAuthentication@cpr@@@std@@PEAX@std@@@std@@V?$_Tree_val@U?$_Tree_simple_types@U?$pair@$$CBV?$basic_string@DU?$char_traits@D@std@@V?$allocator@D@2@@std@@VEncodedAuthentication@cpr@@@std@@@std@@@2@$00@std@@QEAA@U_Zero_then_variadic_args_t@1@@Z
	??$?0$$V@?$_Compressed_pair@V?$allocator@UParameter@cpr@@@std@@V?$_Vector_val@U?$_Simple_types@UParameter@cpr@@@std@@@2@$00@std@@QEAA@U_Zero_then_variadic_args_t@1@@Z
	??$?0$$V@?$_Compressed_pair@V?$allocator@Ucurl_forms@@@std@@V?$_Vector_val@U?$_Simple_types@Ucurl_forms@@@std@@@2@$00@std@@QEAA@U_Zero_then_variadic_args_t@1@@Z
	??$?0$$V@?$_Compressed_pair@V?$allocator@V?$basic_string@DU?$char_traits@D@std@@V?$allocator@D@2@@std@@@std@@V?$_Vector_val@U?$_Simple_types@V?$basic_string@DU?$char_traits@D@std@@V?$allocator@D@2@@std@@@std@@@2@$00@std@@QEAA@U_Zero_then_variadic_args_t@1@@Z
	??$?0AEAPEAVImpl@Session@cpr@@@?$_Compressed_pair@U?$default_delete@VImpl@Session@cpr@@@std@@PEAVImpl@Session@cpr@@$00@std@@QEAA@U_Zero_then_variadic_args_t@1@AEAPEAVImpl@Session@cpr@@@Z
	??$?0AEAV?$allocator@D@std@@$$V@?$_Compressed_pair@V?$allocator@D@std@@V?$_String_val@U?$_Simple_types@D@std@@@2@$00@std@@QEAA@U_One_then_variadic_args_t@1@AEAV?$allocator@D@1@@Z
	??$?0AEBQEAU?$_Tree_node@U?$pair@$$CBV?$basic_string@DU?$char_traits@D@std@@V?$allocator@D@2@@std@@V12@@std@@PEAX@std@@_N$0A@@?$pair@PEAU?$_Tree_node@U?$pair@$$CBV?$basic_string@DU?$char_traits@D@std@@V?$allocator@D@2@@std@@V12@@std@@PEAX@std@@_N@std@@QEAA@AEBQEAU?$_Tree_node@U?$pair@$$CBV?$basic_string@DU?$char_traits@D@std@@V?$allocator@D@2@@std@@V12@@std@@PEAX@1@$$QEA_N@Z
	??$?0AEBQEAU?$_Tree_node@U?$pair@$$CBV?$basic_string@DU?$char_traits@D@std@@V?$allocator@D@2@@std@@VEncodedAuthentication@cpr@@@std@@PEAX@std@@_N$0A@@?$pair@PEAU?$_Tree_node@U?$pair@$$CBV?$basic_string@DU?$char_traits@D@std@@V?$allocator@D@2@@std@@VEncodedAuthentication@cpr@@@std@@PEAX@std@@_N@std@@QEAA@AEBQEAU?$_Tree_node@U?$pair@$$CBV?$basic_string@DU?$char_traits@D@std@@V?$allocator@D@2@@std@@VEncodedAuthentication@cpr@@@std@@PEAX@1@$$QEA_N@Z
	??$?0AEBU?$less@V?$basic_string@DU?$char_traits@D@std@@V?$allocator@D@2@@std@@@std@@U_Zero_then_variadic_args_t@1@@?$_Compressed_pair@U?$less@V?$basic_string@DU?$char_traits@D@std@@V?$allocator@D@2@@std@@@std@@V?$_Compressed_pair@V?$allocator@U?$_Tree_node@U?$pair@$$CBV?$basic_string@DU?$char_traits@D@std@@V?$allocator@D@2@@std@@V12@@std@@PEAX@std@@@std@@V?$_Tree_val@U?$_Tree_simple_types@U?$pair@$$CBV?$basic_string@DU?$char_traits@D@std@@V?$allocator@D@2@@std@@V12@@std@@@std@@@2@$00@2@$00@std@@QEAA@U_One_then_variadic_args_t@1@AEBU?$less@V?$basic_string@DU?$char_traits@D@std@@V?$allocator@D@2@@std@@@1@$$QEAU_Zero_then_variadic_args_t@1@@Z
	??$?0AEBU?$less@V?$basic_string@DU?$char_traits@D@std@@V?$allocator@D@2@@std@@@std@@U_Zero_then_variadic_args_t@1@@?$_Compressed_pair@U?$less@V?$basic_string@DU?$char_traits@D@std@@V?$allocator@D@2@@std@@@std@@V?$_Compressed_pair@V?$allocator@U?$_Tree_node@U?$pair@$$CBV?$basic_string@DU?$char_traits@D@std@@V?$allocator@D@2@@std@@VEncodedAuthentication@cpr@@@std@@PEAX@std@@@std@@V?$_Tree_val@U?$_Tree_simple_types@U?$pair@$$CBV?$basic_string@DU?$char_traits@D@std@@V?$allocator@D@2@@std@@VEncodedAuthentication@cpr@@@std@@@std@@@2@$00@2@$00@std@@QEAA@U_One_then_variadic_args_t@1@AEBU?$less@V?$basic_string@DU?$char_traits@D@std@@V?$allocator@D@2@@std@@@1@$$QEAU_Zero_then_variadic_args_t@1@@Z
	??$?0AEBU?$pair@$$CBV?$basic_string@DU?$char_traits@D@std@@V?$allocator@D@2@@std@@V12@@std@@@?$_Tree_temp_node@V?$allocator@U?$_Tree_node@U?$pair@$$CBV?$basic_string@DU?$char_traits@D@std@@V?$allocator@D@2@@std@@V12@@std@@PEAX@std@@@std@@@std@@QEAA@AEAV?$allocator@U?$_Tree_node@U?$pair@$$CBV?$basic_string@DU?$char_traits@D@std@@V?$allocator@D@2@@std@@V12@@std@@PEAX@std@@@1@PEAU?$_Tree_node@U?$pair@$$CBV?$basic_string@DU?$char_traits@D@std@@V?$allocator@D@2@@std@@V12@@std@@PEAX@1@AEBU?$pair@$$CBV?$basic_string@DU?$char_traits@D@std@@V?$allocator@D@2@@std@@V12@@1@@Z
	??$?0AEBUCaseInsensitiveCompare@cpr@@U_Zero_then_variadic_args_t@std@@@?$_Compressed_pair@UCaseInsensitiveCompare@cpr@@V?$_Compressed_pair@V?$allocator@U?$_Tree_node@U?$pair@$$CBV?$basic_string@DU?$char_traits@D@std@@V?$allocator@D@2@@std@@V12@@std@@PEAX@std@@@std@@V?$_Tree_val@U?$_Tree_simple_types@U?$pair@$$CBV?$basic_string@DU?$char_traits@D@std@@V?$allocator@D@2@@std@@V12@@std@@@std@@@2@$00@std@@$00@std@@QEAA@U_One_then_variadic_args_t@1@AEBUCaseInsensitiveCompare@cpr@@$$QEAU_Zero_then_variadic_args_t@1@@Z
	??$?0AEBUpiecewise_construct_t@std@@V?$tuple@$$QEAV?$basic_string@DU?$char_traits@D@std@@V?$allocator@D@2@@std@@@1@V?$tuple@$$V@1@@?$_Tree_temp_node@V?$allocator@U?$_Tree_node@U?$pair@$$CBV?$basic_string@DU?$char_traits@D@std@@V?$allocator@D@2@@std@@V12@@std@@PEAX@std@@@std@@@std@@QEAA@AEAV?$allocator@U?$_Tree_node@U?$pair@$$CBV?$basic_string@DU?$char_traits@D@std@@V?$allocator@D@2@@std@@V12@@std@@PEAX@std@@@1@PEAU?$_Tree_node@U?$pair@$$CBV?$basic_string@DU?$char_traits@D@std@@V?$allocator@D@2@@std@@V12@@std@@PEAX@1@AEBUpiecewise_construct_t@1@$$QEAV?$tuple@$$QEAV?$basic_string@DU?$char_traits@D@std@@V?$allocator@D@2@@std@@@1@$$QEAV?$tuple@$$V@1@@Z
	??$?0AEBUpiecewise_construct_t@std@@V?$tuple@AEBV?$basic_string@DU?$char_traits@D@std@@V?$allocator@D@2@@std@@@1@V?$tuple@$$V@1@@?$_Tree_temp_node@V?$allocator@U?$_Tree_node@U?$pair@$$CBV?$basic_string@DU?$char_traits@D@std@@V?$allocator@D@2@@std@@V12@@std@@PEAX@std@@@std@@@std@@QEAA@AEAV?$allocator@U?$_Tree_node@U?$pair@$$CBV?$basic_string@DU?$char_traits@D@std@@V?$allocator@D@2@@std@@V12@@std@@PEAX@std@@@1@PEAU?$_Tree_node@U?$pair@$$CBV?$basic_string@DU?$char_traits@D@std@@V?$allocator@D@2@@std@@V12@@std@@PEAX@1@AEBUpiecewise_construct_t@1@$$QEAV?$tuple@AEBV?$basic_string@DU?$char_traits@D@std@@V?$allocator@D@2@@std@@@1@$$QEAV?$tuple@$$V@1@@Z
	??$?0AEBUpiecewise_construct_t@std@@V?$tuple@AEBV?$basic_string@DU?$char_traits@D@std@@V?$allocator@D@2@@std@@@1@V?$tuple@$$V@1@@?$_Tree_temp_node@V?$allocator@U?$_Tree_node@U?$pair@$$CBV?$basic_string@DU?$char_traits@D@std@@V?$allocator@D@2@@std@@VEncodedAuthentication@cpr@@@std@@PEAX@std@@@std@@@std@@QEAA@AEAV?$allocator@U?$_Tree_node@U?$pair@$$CBV?$basic_string@DU?$char_traits@D@std@@V?$allocator@D@2@@std@@VEncodedAuthentication@cpr@@@std@@PEAX@std@@@1@PEAU?$_Tree_node@U?$pair@$$CBV?$basic_string@DU?$char_traits@D@std@@V?$allocator@D@2@@std@@VEncodedAuthentication@cpr@@@std@@PEAX@1@AEBUpiecewise_construct_t@1@$$QEAV?$tuple@AEBV?$basic_string@DU?$char_traits@D@std@@V?$allocator@D@2@@std@@@1@$$QEAV?$tuple@$$V@1@@Z
	??$?0AEBV?$allocator@D@std@@$$V@?$_Compressed_pair@V?$allocator@D@std@@V?$_String_val@U?$_Simple_types@D@std@@@2@$00@std@@QEAA@U_One_then_variadic_args_t@1@AEBV?$allocator@D@1@@Z
	??$?0AEBV?$allocator@UPair@cpr@@@std@@$$V@?$_Compressed_pair@V?$allocator@UPair@cpr@@@std@@V?$_Vector_val@U?$_Simple_types@UPair@cpr@@@std@@@2@$00@std@@QEAA@U_One_then_variadic_args_t@1@AEBV?$allocator@UPair@cpr@@@1@@Z
	??$?0AEBV?$allocator@UParameter@cpr@@@std@@$$V@?$_Compressed_pair@V?$allocator@UParameter@cpr@@@std@@V?$_Vector_val@U?$_Simple_types@UParameter@cpr@@@std@@@2@$00@std@@QEAA@U_One_then_variadic_args_t@1@AEBV?$allocator@UParameter@cpr@@@1@@Z
	??$?0AEBV?$allocator@UPart@cpr@@@std@@$$V@?$_Compressed_pair@V?$allocator@UPart@cpr@@@std@@V?$_Vector_val@U?$_Simple_types@UPart@cpr@@@std@@@2@$00@std@@QEAA@U_One_then_variadic_args_t@1@AEBV?$allocator@UPart@cpr@@@1@@Z
	??$?0AEBV?$basic_string@DU?$char_traits@D@std@@V?$allocator@D@2@@std@@$$Z$$V@?$pair@$$CBV?$basic_string@DU?$char_traits@D@std@@V?$allocator@D@2@@std@@V12@@std@@QEAA@Upiecewise_construct_t@1@V?$tuple@AEBV?$basic_string@DU?$char_traits@D@std@@V?$allocator@D@2@@std@@@1@V?$tuple@$$V@1@@Z
	??$?0AEBV?$basic_string@DU?$char_traits@D@std@@V?$allocator@D@2@@std@@$$Z$$V@?$pair@$$CBV?$basic_string@DU?$char_traits@D@std@@V?$allocator@D@2@@std@@VEncodedAuthentication@cpr@@@std@@QEAA@Upiecewise_construct_t@1@V?$tuple@AEBV?$basic_string@DU?$char_traits@D@std@@V?$allocator@D@2@@std@@@1@V?$tuple@$$V@1@@Z
	??$?0AEBV?$basic_string@DU?$char_traits@D@std@@V?$allocator@D@2@@std@@$0A@@?$tuple@AEBV?$basic_string@DU?$char_traits@D@std@@V?$allocator@D@2@@std@@@std@@QEAA@AEBV?$basic_string@DU?$char_traits@D@std@@V?$allocator@D@2@@1@@Z
	??$?0AEBV?$basic_string@DU?$char_traits@D@std@@V?$allocator@D@2@@std@@@?$_Tuple_val@AEBV?$basic_string@DU?$char_traits@D@std@@V?$allocator@D@2@@std@@@std@@QEAA@AEBV?$basic_string@DU?$char_traits@D@std@@V?$allocator@D@2@@1@@Z
	??$?0D@?$allocator@U_Container_proxy@std@@@std@@QEAA@AEBV?$allocator@D@1@@Z
	??$?0PEAD$0A@@?$basic_string@DU?$char_traits@D@std@@V?$allocator@D@2@@std@@QEAA@PEAD0AEBV?$allocator@D@1@@Z
	??$?0PEAU?$_Tree_node@U?$pair@$$CBV?$basic_string@DU?$char_traits@D@std@@V?$allocator@D@2@@std@@V12@@std@@PEAX@std@@_N$0A@@?$pair@PEAU?$_Tree_node@U?$pair@$$CBV?$basic_string@DU?$char_traits@D@std@@V?$allocator@D@2@@std@@V12@@std@@PEAX@std@@_N@std@@QEAA@$$QEAPEAU?$_Tree_node@U?$pair@$$CBV?$basic_string@DU?$char_traits@D@std@@V?$allocator@D@2@@std@@V12@@std@@PEAX@1@$$QEA_N@Z
	??$?0PEAU?$_Tree_node@U?$pair@$$CBV?$basic_string@DU?$char_traits@D@std@@V?$allocator@D@2@@std@@VEncodedAuthentication@cpr@@@std@@PEAX@std@@_N$0A@@?$pair@PEAU?$_Tree_node@U?$pair@$$CBV?$basic_string@DU?$char_traits@D@std@@V?$allocator@D@2@@std@@VEncodedAuthentication@cpr@@@std@@PEAX@std@@_N@std@@QEAA@$$QEAPEAU?$_Tree_node@U?$pair@$$CBV?$basic_string@DU?$char_traits@D@std@@V?$allocator@D@2@@std@@VEncodedAuthentication@cpr@@@std@@PEAX@1@$$QEA_N@Z
	??$?0U?$_Tree_node@U?$pair@$$CBV?$basic_string@DU?$char_traits@D@std@@V?$allocator@D@2@@std@@V12@@std@@PEAX@std@@@?$allocator@U_Container_proxy@std@@@std@@QEAA@AEBV?$allocator@U?$_Tree_node@U?$pair@$$CBV?$basic_string@DU?$char_traits@D@std@@V?$allocator@D@2@@std@@V12@@std@@PEAX@std@@@1@@Z
	??$?0U?$_Tree_node@U?$pair@$$CBV?$basic_string@DU?$char_traits@D@std@@V?$allocator@D@2@@std@@VEncodedAuthentication@cpr@@@std@@PEAX@std@@@?$allocator@U_Container_proxy@std@@@std@@QEAA@AEBV?$allocator@U?$_Tree_node@U?$pair@$$CBV?$basic_string@DU?$char_traits@D@std@@V?$allocator@D@2@@std@@VEncodedAuthentication@cpr@@@std@@PEAX@std@@@1@@Z
	??$?0U?$default_delete@VImpl@Session@cpr@@@std@@$0A@@?$unique_ptr@VImpl@Session@cpr@@U?$default_delete@VImpl@Session@cpr@@@std@@@std@@QEAA@$$QEAV01@@Z
	??$?0U?$default_delete@VImpl@Session@cpr@@@std@@$0A@@?$unique_ptr@VImpl@Session@cpr@@U?$default_delete@VImpl@Session@cpr@@@std@@@std@@QEAA@PEAVImpl@Session@cpr@@@Z
	??$?0U?$default_delete@VImpl@Session@cpr@@@std@@PEAVImpl@Session@cpr@@@?$_Compressed_pair@U?$default_delete@VImpl@Session@cpr@@@std@@PEAVImpl@Session@cpr@@$00@std@@QEAA@U_One_then_variadic_args_t@1@$$QEAU?$default_delete@VImpl@Session@cpr@@@1@$$QEAPEAVImpl@Session@cpr@@@Z
	??$?0U?$less@V?$basic_string@DU?$char_traits@D@std@@V?$allocator@D@2@@std@@@std@@U_One_then_variadic_args_t@1@V?$allocator@U?$_Tree_node@U?$pair@$$CBV?$basic_string@DU?$char_traits@D@std@@V?$allocator@D@2@@std@@V12@@std@@PEAX@std@@@1@@?$_Compressed_pair@U?$less@V?$basic_string@DU?$char_traits@D@std@@V?$allocator@D@2@@std@@@std@@V?$_Compressed_pair@V?$allocator@U?$_Tree_node@U?$pair@$$CBV?$basic_string@DU?$char_traits@D@std@@V?$allocator@D@2@@std@@V12@@std@@PEAX@std@@@std@@V?$_Tree_val@U?$_Tree_simple_types@U?$pair@$$CBV?$basic_string@DU?$char_traits@D@std@@V?$allocator@D@2@@std@@V12@@std@@@std@@@2@$00@2@$00@std@@QEAA@U_One_then_variadic_args_t@1@$$QEAU?$less@V?$basic_string@DU?$char_traits@D@std@@V?$allocator@D@2@@std@@@1@$$QEAU21@$$QEAV?$allocator@U?$_Tree_node@U?$pair@$$CBV?$basic_string@DU?$char_traits@D@std@@V?$allocator@D@2@@std@@V12@@std@@PEAX@std@@@1@@Z
	??$?0UCaseInsensitiveCompare@cpr@@U_One_then_variadic_args_t@std@@V?$allocator@U?$_Tree_node@U?$pair@$$CBV?$basic_string@DU?$char_traits@D@std@@V?$allocator@D@2@@std@@V12@@std@@PEAX@std@@@3@@?$_Compressed_pair@UCaseInsensitiveCompare@cpr@@V?$_Compressed_pair@V?$allocator@U?$_Tree_node@U?$pair@$$CBV?$basic_string@DU?$char_traits@D@std@@V?$allocator@D@2@@std@@V12@@std@@PEAX@std@@@std@@V?$_Tree_val@U?$_Tree_simple_types@U?$pair@$$CBV?$basic_string@DU?$char_traits@D@std@@V?$allocator@D@2@@std@@V12@@std@@@std@@@2@$00@std@@$00@std@@QEAA@U_One_then_variadic_args_t@1@$$QEAUCaseInsensitiveCompare@cpr@@$$QEAU21@$$QEAV?$allocator@U?$_Tree_node@U?$pair@$$CBV?$basic_string@DU?$char_traits@D@std@@V?$allocator@D@2@@std@@V12@@std@@PEAX@std@@@1@@Z
	??$?0UCurlHolder@cpr@@$0A@@?$shared_ptr@UCurlHolder@cpr@@@std@@QEAA@PEAUCurlHolder@cpr@@@Z
	??$?0UPair@cpr@@@?$allocator@U_Container_proxy@std@@@std@@QEAA@AEBV?$allocator@UPair@cpr@@@1@@Z
	??$?0UParameter@cpr@@@?$allocator@U_Container_proxy@std@@@std@@QEAA@AEBV?$allocator@UParameter@cpr@@@1@@Z
	??$?0UPart@cpr@@@?$allocator@U_Container_proxy@std@@@std@@QEAA@AEBV?$allocator@UPart@cpr@@@1@@Z
	??$?0U_Exact_args_t@std@@$0A@@?$tuple@$$V@std@@QEAA@U_Exact_args_t@1@@Z
	??$?0U_Exact_args_t@std@@AEBV?$basic_string@DU?$char_traits@D@std@@V?$allocator@D@2@@1@$$V$0A@@?$tuple@AEBV?$basic_string@DU?$char_traits@D@std@@V?$allocator@D@2@@std@@@std@@QEAA@U_Exact_args_t@1@AEBV?$basic_string@DU?$char_traits@D@std@@V?$allocator@D@2@@1@@Z
	??$?0U_Exact_args_t@std@@V?$basic_string@DU?$char_traits@D@std@@V?$allocator@D@2@@1@$$V$0A@@?$tuple@$$QEAV?$basic_string@DU?$char_traits@D@std@@V?$allocator@D@2@@std@@@std@@QEAA@U_Exact_args_t@1@$$QEAV?$basic_string@DU?$char_traits@D@std@@V?$allocator@D@2@@1@@Z
	??$?0Ucurl_forms@@@?$allocator@U_Container_proxy@std@@@std@@QEAA@AEBV?$allocator@Ucurl_forms@@@1@@Z
	??$?0V?$allocator@D@std@@$$V@?$_Compressed_pair@V?$allocator@D@std@@V?$_String_val@U?$_Simple_types@D@std@@@2@$00@std@@QEAA@U_One_then_variadic_args_t@1@$$QEAV?$allocator@D@1@@Z
	??$?0V?$allocator@U?$_Tree_node@U?$pair@$$CBV?$basic_string@DU?$char_traits@D@std@@V?$allocator@D@2@@std@@V12@@std@@PEAX@std@@@std@@$$V@?$_Compressed_pair@V?$allocator@U?$_Tree_node@U?$pair@$$CBV?$basic_string@DU?$char_traits@D@std@@V?$allocator@D@2@@std@@V12@@std@@PEAX@std@@@std@@V?$_Tree_val@U?$_Tree_simple_types@U?$pair@$$CBV?$basic_string@DU?$char_traits@D@std@@V?$allocator@D@2@@std@@V12@@std@@@std@@@2@$00@std@@QEAA@U_One_then_variadic_args_t@1@$$QEAV?$allocator@U?$_Tree_node@U?$pair@$$CBV?$basic_string@DU?$char_traits@D@std@@V?$allocator@D@2@@std@@V12@@std@@PEAX@std@@@1@@Z
	??$?0V?$allocator@V?$basic_string@DU?$char_traits@D@std@@V?$allocator@D@2@@std@@@std@@PEAV?$basic_string@DU?$char_traits@D@std@@V?$allocator@D@2@@1@PEAV21@PEAV21@@?$_Compressed_pair@V?$allocator@V?$basic_string@DU?$char_traits@D@std@@V?$allocator@D@2@@std@@@std@@V?$_Vector_val@U?$_Simple_types@V?$basic_string@DU?$char_traits@D@std@@V?$allocator@D@2@@std@@@std@@@2@$00@std@@QEAA@U_One_then_variadic_args_t@1@$$QEAV?$allocator@V?$basic_string@DU?$char_traits@D@std@@V?$allocator@D@2@@std@@@1@$$QEAPEAV?$basic_string@DU?$char_traits@D@std@@V?$allocator@D@2@@1@22@Z
	??$?0V?$basic_string@DU?$char_traits@D@std@@V?$allocator@D@2@@std@@$$V$0A@@?$tuple@$$QEAV?$basic_string@DU?$char_traits@D@std@@V?$allocator@D@2@@std@@@std@@QEAA@$$QEAV?$basic_string@DU?$char_traits@D@std@@V?$allocator@D@2@@1@@Z
	??$?0V?$basic_string@DU?$char_traits@D@std@@V?$allocator@D@2@@std@@@?$_Tuple_val@$$QEAV?$basic_string@DU?$char_traits@D@std@@V?$allocator@D@2@@std@@@std@@QEAA@$$QEAV?$basic_string@DU?$char_traits@D@std@@V?$allocator@D@2@@1@@Z
	??$?0V?$basic_string@DU?$char_traits@D@std@@V?$allocator@D@2@@std@@@?$allocator@U_Container_proxy@std@@@std@@QEAA@AEBV?$allocator@V?$basic_string@DU?$char_traits@D@std@@V?$allocator@D@2@@std@@@1@@Z
	??$?0V?$tuple@$$QEAV?$basic_string@DU?$char_traits@D@std@@V?$allocator@D@2@@std@@@std@@V?$tuple@$$V@1@$0A@$$Z$S@?$pair@$$CBV?$basic_string@DU?$char_traits@D@std@@V?$allocator@D@2@@std@@V12@@std@@QEAA@AEAV?$tuple@$$QEAV?$basic_string@DU?$char_traits@D@std@@V?$allocator@D@2@@std@@@1@AEAV?$tuple@$$V@1@U?$integer_sequence@_K$0A@@1@U?$integer_sequence@_K$S@1@@Z
	??$?0V?$tuple@AEBV?$basic_string@DU?$char_traits@D@std@@V?$allocator@D@2@@std@@@std@@V?$tuple@$$V@1@$0A@$$Z$S@?$pair@$$CBV?$basic_string@DU?$char_traits@D@std@@V?$allocator@D@2@@std@@V12@@std@@QEAA@AEAV?$tuple@AEBV?$basic_string@DU?$char_traits@D@std@@V?$allocator@D@2@@std@@@1@AEAV?$tuple@$$V@1@U?$integer_sequence@_K$0A@@1@U?$integer_sequence@_K$S@1@@Z
	??$?0V?$tuple@AEBV?$basic_string@DU?$char_traits@D@std@@V?$allocator@D@2@@std@@@std@@V?$tuple@$$V@1@$0A@$$Z$S@?$pair@$$CBV?$basic_string@DU?$char_traits@D@std@@V?$allocator@D@2@@std@@VEncodedAuthentication@cpr@@@std@@QEAA@AEAV?$tuple@AEBV?$basic_string@DU?$char_traits@D@std@@V?$allocator@D@2@@std@@@1@AEAV?$tuple@$$V@1@U?$integer_sequence@_K$0A@@1@U?$integer_sequence@_K$S@1@@Z
	??$?4U?$default_delete@VImpl@Session@cpr@@@std@@$0A@@?$unique_ptr@VImpl@Session@cpr@@U?$default_delete@VImpl@Session@cpr@@@std@@@std@@QEAAAEAV01@$$QEAV01@@Z
	??$?6DU?$char_traits@D@std@@V?$allocator@D@1@@std@@YAAEAV?$basic_ostream@DU?$char_traits@D@std@@@0@AEAV10@AEBV?$basic_string@DU?$char_traits@D@std@@V?$allocator@D@2@@0@@Z
	??$?6U?$char_traits@D@std@@@std@@YAAEAV?$basic_ostream@DU?$char_traits@D@std@@@0@AEAV10@PEBD@Z
	??$?8DU?$char_traits@D@std@@V?$allocator@D@1@@std@@YA_NAEBV?$basic_string@DU?$char_traits@D@std@@V?$allocator@D@2@@0@QEBD@Z
	??$?CUCurlHolder@cpr@@$0A@@?$shared_ptr@UCurlHolder@cpr@@@std@@QEBAPEAUCurlHolder@cpr@@XZ
	??$?DUCurlHolder@cpr@@$0A@@?$shared_ptr@UCurlHolder@cpr@@@std@@QEBAAEAUCurlHolder@cpr@@XZ
	??$?HDU?$char_traits@D@std@@V?$allocator@D@1@@std@@YA?AV?$basic_string@DU?$char_traits@D@std@@V?$allocator@D@2@@0@$$QEAV10@0@Z
	??$?HDU?$char_traits@D@std@@V?$allocator@D@1@@std@@YA?AV?$basic_string@DU?$char_traits@D@std@@V?$allocator@D@2@@0@$$QEAV10@AEBV10@@Z
	??$?HDU?$char_traits@D@std@@V?$allocator@D@1@@std@@YA?AV?$basic_string@DU?$char_traits@D@std@@V?$allocator@D@2@@0@$$QEAV10@QEBD@Z
	??$?HDU?$char_traits@D@std@@V?$allocator@D@1@@std@@YA?AV?$basic_string@DU?$char_traits@D@std@@V?$allocator@D@2@@0@AEBV10@0@Z
	??$?HDU?$char_traits@D@std@@V?$allocator@D@1@@std@@YA?AV?$basic_string@DU?$char_traits@D@std@@V?$allocator@D@2@@0@AEBV10@QEBD@Z
	??$?HDU?$char_traits@D@std@@V?$allocator@D@1@@std@@YA?AV?$basic_string@DU?$char_traits@D@std@@V?$allocator@D@2@@0@QEBD$$QEAV10@@Z
	??$?HDU?$char_traits@D@std@@V?$allocator@D@1@@std@@YA?AV?$basic_string@DU?$char_traits@D@std@@V?$allocator@D@2@@0@QEBDAEBV10@@Z
	??$?MDU?$char_traits@D@std@@V?$allocator@D@1@@std@@YA_NAEBV?$basic_string@DU?$char_traits@D@std@@V?$allocator@D@2@@0@0@Z
	??$_Adl_verify_range@PEADPEAD@std@@YAXAEBQEAD0@Z
	??$_Adl_verify_range@PEBUPair@cpr@@PEBU12@@std@@YAXAEBQEBUPair@cpr@@0@Z
	??$_Adl_verify_range@PEBUParameter@cpr@@PEBU12@@std@@YAXAEBQEBUParameter@cpr@@0@Z
	??$_Adl_verify_range@V?$_String_const_iterator@V?$_String_val@U?$_Simple_types@D@std@@@std@@@std@@V12@@std@@YAXAEBV?$_String_const_iterator@V?$_String_val@U?$_Simple_types@D@std@@@std@@@0@0@Z
	??$_Alloc_proxy@V?$allocator@U_Container_proxy@std@@@std@@@_Container_base12@std@@QEAAX$$QEAV?$allocator@U_Container_proxy@std@@@1@@Z
	??$_Allocate@$0BA@U_Default_allocate_traits@std@@@std@@YAPEAX_K@Z
	??$_Allocate_at_least_helper@V?$allocator@D@std@@@std@@YAPEADAEAV?$allocator@D@0@AEA_K@Z
	??$_Allocate_at_least_helper@V?$allocator@UPair@cpr@@@std@@@std@@YAPEAUPair@cpr@@AEAV?$allocator@UPair@cpr@@@0@AEA_K@Z
	??$_Allocate_at_least_helper@V?$allocator@UParameter@cpr@@@std@@@std@@YAPEAUParameter@cpr@@AEAV?$allocator@UParameter@cpr@@@0@AEA_K@Z
	??$_Allocate_at_least_helper@V?$allocator@UPart@cpr@@@std@@@std@@YAPEAUPart@cpr@@AEAV?$allocator@UPart@cpr@@@0@AEA_K@Z
	??$_Allocate_at_least_helper@V?$allocator@Ucurl_forms@@@std@@@std@@YAPEAUcurl_forms@@AEAV?$allocator@Ucurl_forms@@@0@AEA_K@Z
	??$_Allocate_at_least_helper@V?$allocator@V?$basic_string@DU?$char_traits@D@std@@V?$allocator@D@2@@std@@@std@@@std@@YAPEAV?$basic_string@DU?$char_traits@D@std@@V?$allocator@D@2@@0@AEAV?$allocator@V?$basic_string@DU?$char_traits@D@std@@V?$allocator@D@2@@std@@@0@AEA_K@Z
	??$_Allocate_for_capacity@$0A@@?$basic_string@DU?$char_traits@D@std@@V?$allocator@D@2@@std@@CAPEADAEAV?$allocator@D@1@AEA_K@Z
	??$_Allocate_manually_vector_aligned@U_Default_allocate_traits@std@@@std@@YAPEAX_K@Z
	??$_Allocators_equal@V?$allocator@D@std@@@std@@YA_NAEBV?$allocator@D@0@0@Z
	??$_Assign_counted_range@PEAUParameter@cpr@@@?$vector@UParameter@cpr@@V?$allocator@UParameter@cpr@@@std@@@std@@AEAAXPEAUParameter@cpr@@_K@Z
	??$_Buyheadnode@V?$allocator@U?$_Tree_node@U?$pair@$$CBV?$basic_string@DU?$char_traits@D@std@@V?$allocator@D@2@@std@@V12@@std@@PEAX@std@@@std@@@?$_Tree_node@U?$pair@$$CBV?$basic_string@DU?$char_traits@D@std@@V?$allocator@D@2@@std@@V12@@std@@PEAX@std@@SAPEAU01@AEAV?$allocator@U?$_Tree_node@U?$pair@$$CBV?$basic_string@DU?$char_traits@D@std@@V?$allocator@D@2@@std@@V12@@std@@PEAX@std@@@1@@Z
	??$_Buyheadnode@V?$allocator@U?$_Tree_node@U?$pair@$$CBV?$basic_string@DU?$char_traits@D@std@@V?$allocator@D@2@@std@@VEncodedAuthentication@cpr@@@std@@PEAX@std@@@std@@@?$_Tree_node@U?$pair@$$CBV?$basic_string@DU?$char_traits@D@std@@V?$allocator@D@2@@std@@VEncodedAuthentication@cpr@@@std@@PEAX@std@@SAPEAU01@AEAV?$allocator@U?$_Tree_node@U?$pair@$$CBV?$basic_string@DU?$char_traits@D@std@@V?$allocator@D@2@@std@@VEncodedAuthentication@cpr@@@std@@PEAX@std@@@1@@Z
	??$_Buynode@AEAU?$pair@$$CBV?$basic_string@DU?$char_traits@D@std@@V?$allocator@D@2@@std@@V12@@std@@@?$_Tree@V?$_Tmap_traits@V?$basic_string@DU?$char_traits@D@std@@V?$allocator@D@2@@std@@V12@U?$less@V?$basic_string@DU?$char_traits@D@std@@V?$allocator@D@2@@std@@@2@V?$allocator@U?$pair@$$CBV?$basic_string@DU?$char_traits@D@std@@V?$allocator@D@2@@std@@V12@@std@@@2@$0A@@std@@@std@@IEAAPEAU?$_Tree_node@U?$pair@$$CBV?$basic_string@DU?$char_traits@D@std@@V?$allocator@D@2@@std@@V12@@std@@PEAX@1@AEAU?$pair@$$CBV?$basic_string@DU?$char_traits@D@std@@V?$allocator@D@2@@std@@V12@@1@@Z
	??$_Buynode@AEAU?$pair@$$CBV?$basic_string@DU?$char_traits@D@std@@V?$allocator@D@2@@std@@V12@@std@@@?$_Tree@V?$_Tmap_traits@V?$basic_string@DU?$char_traits@D@std@@V?$allocator@D@2@@std@@V12@UCaseInsensitiveCompare@cpr@@V?$allocator@U?$pair@$$CBV?$basic_string@DU?$char_traits@D@std@@V?$allocator@D@2@@std@@V12@@std@@@2@$0A@@std@@@std@@IEAAPEAU?$_Tree_node@U?$pair@$$CBV?$basic_string@DU?$char_traits@D@std@@V?$allocator@D@2@@std@@V12@@std@@PEAX@1@AEAU?$pair@$$CBV?$basic_string@DU?$char_traits@D@std@@V?$allocator@D@2@@std@@V12@@1@@Z
	??$_Buynode@AEAU?$pair@$$CBV?$basic_string@DU?$char_traits@D@std@@V?$allocator@D@2@@std@@VEncodedAuthentication@cpr@@@std@@@?$_Tree@V?$_Tmap_traits@V?$basic_string@DU?$char_traits@D@std@@V?$allocator@D@2@@std@@VEncodedAuthentication@cpr@@U?$less@V?$basic_string@DU?$char_traits@D@std@@V?$allocator@D@2@@std@@@2@V?$allocator@U?$pair@$$CBV?$basic_string@DU?$char_traits@D@std@@V?$allocator@D@2@@std@@VEncodedAuthentication@cpr@@@std@@@2@$0A@@std@@@std@@IEAAPEAU?$_Tree_node@U?$pair@$$CBV?$basic_string@DU?$char_traits@D@std@@V?$allocator@D@2@@std@@VEncodedAuthentication@cpr@@@std@@PEAX@1@AEAU?$pair@$$CBV?$basic_string@DU?$char_traits@D@std@@V?$allocator@D@2@@std@@VEncodedAuthentication@cpr@@@1@@Z
	??$_Buynode@V?$allocator@U?$_Tree_node@U?$pair@$$CBV?$basic_string@DU?$char_traits@D@std@@V?$allocator@D@2@@std@@V12@@std@@PEAX@std@@@std@@AEAU?$pair@$$CBV?$basic_string@DU?$char_traits@D@std@@V?$allocator@D@2@@std@@V12@@2@@?$_Tree_node@U?$pair@$$CBV?$basic_string@DU?$char_traits@D@std@@V?$allocator@D@2@@std@@V12@@std@@PEAX@std@@SAPEAU01@AEAV?$allocator@U?$_Tree_node@U?$pair@$$CBV?$basic_string@DU?$char_traits@D@std@@V?$allocator@D@2@@std@@V12@@std@@PEAX@std@@@1@PEAU01@AEAU?$pair@$$CBV?$basic_string@DU?$char_traits@D@std@@V?$allocator@D@2@@std@@V12@@1@@Z
	??$_Buynode@V?$allocator@U?$_Tree_node@U?$pair@$$CBV?$basic_string@DU?$char_traits@D@std@@V?$allocator@D@2@@std@@VEncodedAuthentication@cpr@@@std@@PEAX@std@@@std@@AEAU?$pair@$$CBV?$basic_string@DU?$char_traits@D@std@@V?$allocator@D@2@@std@@VEncodedAuthentication@cpr@@@2@@?$_Tree_node@U?$pair@$$CBV?$basic_string@DU?$char_traits@D@std@@V?$allocator@D@2@@std@@VEncodedAuthentication@cpr@@@std@@PEAX@std@@SAPEAU01@AEAV?$allocator@U?$_Tree_node@U?$pair@$$CBV?$basic_string@DU?$char_traits@D@std@@V?$allocator@D@2@@std@@VEncodedAuthentication@cpr@@@std@@PEAX@std@@@1@PEAU01@AEAU?$pair@$$CBV?$basic_string@DU?$char_traits@D@std@@V?$allocator@D@2@@std@@VEncodedAuthentication@cpr@@@1@@Z
	??$_Construct@$00PEAD@?$basic_string@DU?$char_traits@D@std@@V?$allocator@D@2@@std@@AEAAXQEAD_K@Z
	??$_Construct@$00PEBD@?$basic_string@DU?$char_traits@D@std@@V?$allocator@D@2@@std@@AEAAXQEBD_K@Z
	??$_Construct@$01PEBD@?$basic_string@DU?$char_traits@D@std@@V?$allocator@D@2@@std@@AEAAXQEBD_K@Z
	??$_Construct_in_place@PEADAEAPEAD@std@@YAXAEAPEAD0@Z
	??$_Construct_in_place@PEADAEBQEAD@std@@YAXAEAPEADAEBQEAD@Z
	??$_Construct_in_place@PEAU?$_Tree_node@U?$pair@$$CBV?$basic_string@DU?$char_traits@D@std@@V?$allocator@D@2@@std@@V12@@std@@PEAX@std@@AEAPEAU12@@std@@YAXAEAPEAU?$_Tree_node@U?$pair@$$CBV?$basic_string@DU?$char_traits@D@std@@V?$allocator@D@2@@std@@V12@@std@@PEAX@0@0@Z
	??$_Construct_in_place@PEAU?$_Tree_node@U?$pair@$$CBV?$basic_string@DU?$char_traits@D@std@@V?$allocator@D@2@@std@@V12@@std@@PEAX@std@@AEBQEAU12@@std@@YAXAEAPEAU?$_Tree_node@U?$pair@$$CBV?$basic_string@DU?$char_traits@D@std@@V?$allocator@D@2@@std@@V12@@std@@PEAX@0@AEBQEAU10@@Z
	??$_Construct_in_place@PEAU?$_Tree_node@U?$pair@$$CBV?$basic_string@DU?$char_traits@D@std@@V?$allocator@D@2@@std@@VEncodedAuthentication@cpr@@@std@@PEAX@std@@AEAPEAU12@@std@@YAXAEAPEAU?$_Tree_node@U?$pair@$$CBV?$basic_string@DU?$char_traits@D@std@@V?$allocator@D@2@@std@@VEncodedAuthentication@cpr@@@std@@PEAX@0@0@Z
	??$_Construct_in_place@PEAU?$_Tree_node@U?$pair@$$CBV?$basic_string@DU?$char_traits@D@std@@V?$allocator@D@2@@std@@VEncodedAuthentication@cpr@@@std@@PEAX@std@@AEBQEAU12@@std@@YAXAEAPEAU?$_Tree_node@U?$pair@$$CBV?$basic_string@DU?$char_traits@D@std@@V?$allocator@D@2@@std@@VEncodedAuthentication@cpr@@@std@@PEAX@0@AEBQEAU10@@Z
	??$_Construct_in_place@UPair@cpr@@U12@@std@@YAXAEAUPair@cpr@@$$QEAU12@@Z
	??$_Construct_in_place@UParameter@cpr@@U12@@std@@YAXAEAUParameter@cpr@@$$QEAU12@@Z
	??$_Construct_in_place@U_Container_proxy@std@@PEAU_Container_base12@2@@std@@YAXAEAU_Container_proxy@0@$$QEAPEAU_Container_base12@0@@Z
	??$_Construct_in_place@Ucurl_forms@@U1@@std@@YAXAEAUcurl_forms@@$$QEAU1@@Z
	??$_Construct_n@PEBUPair@cpr@@PEBU12@@?$vector@UPair@cpr@@V?$allocator@UPair@cpr@@@std@@@std@@AEAAX_K$$QEAPEBUPair@cpr@@1@Z
	??$_Construct_n@PEBUParameter@cpr@@PEBU12@@?$vector@UParameter@cpr@@V?$allocator@UParameter@cpr@@@std@@@std@@AEAAX_K$$QEAPEBUParameter@cpr@@1@Z
	??$_Construct_n@PEBUPart@cpr@@PEBU12@@?$vector@UPart@cpr@@V?$allocator@UPart@cpr@@@std@@@std@@AEAAX_K$$QEAPEBUPart@cpr@@1@Z
	??$_Convert_size@_K_K@std@@YA_K_K@Z
	??$_Copy@$0A@@?$_Tree@V?$_Tmap_traits@V?$basic_string@DU?$char_traits@D@std@@V?$allocator@D@2@@std@@V12@U?$less@V?$basic_string@DU?$char_traits@D@std@@V?$allocator@D@2@@std@@@2@V?$allocator@U?$pair@$$CBV?$basic_string@DU?$char_traits@D@std@@V?$allocator@D@2@@std@@V12@@std@@@2@$0A@@std@@@std@@IEAAXAEBV01@@Z
	??$_Copy@$0A@@?$_Tree@V?$_Tmap_traits@V?$basic_string@DU?$char_traits@D@std@@V?$allocator@D@2@@std@@V12@UCaseInsensitiveCompare@cpr@@V?$allocator@U?$pair@$$CBV?$basic_string@DU?$char_traits@D@std@@V?$allocator@D@2@@std@@V12@@std@@@2@$0A@@std@@@std@@IEAAXAEBV01@@Z
	??$_Copy@$0A@@?$_Tree@V?$_Tmap_traits@V?$basic_string@DU?$char_traits@D@std@@V?$allocator@D@2@@std@@VEncodedAuthentication@cpr@@U?$less@V?$basic_string@DU?$char_traits@D@std@@V?$allocator@D@2@@std@@@2@V?$allocator@U?$pair@$$CBV?$basic_string@DU?$char_traits@D@std@@V?$allocator@D@2@@std@@VEncodedAuthentication@cpr@@@std@@@2@$0A@@std@@@std@@IEAAXAEBV01@@Z
	??$_Copy_construct_from@UCurlHolder@cpr@@@?$_Ptr_base@UCurlHolder@cpr@@@std@@IEAAXAEBV?$shared_ptr@UCurlHolder@cpr@@@1@@Z
	??$_Copy_memmove@PEAUcurl_forms@@PEAU1@@std@@YAPEAUcurl_forms@@PEAU1@00@Z
	??$_Copy_n_unchecked4@PEAUParameter@cpr@@_KPEAU12@@std@@YAPEAUParameter@cpr@@PEAU12@_K0@Z
	??$_Copy_nodes@$0A@@?$_Tree@V?$_Tmap_traits@V?$basic_string@DU?$char_traits@D@std@@V?$allocator@D@2@@std@@V12@U?$less@V?$basic_string@DU?$char_traits@D@std@@V?$allocator@D@2@@std@@@2@V?$allocator@U?$pair@$$CBV?$basic_string@DU?$char_traits@D@std@@V?$allocator@D@2@@std@@V12@@std@@@2@$0A@@std@@@std@@IEAAPEAU?$_Tree_node@U?$pair@$$CBV?$basic_string@DU?$char_traits@D@std@@V?$allocator@D@2@@std@@V12@@std@@PEAX@1@PEAU21@0@Z
	??$_Copy_nodes@$0A@@?$_Tree@V?$_Tmap_traits@V?$basic_string@DU?$char_traits@D@std@@V?$allocator@D@2@@std@@V12@UCaseInsensitiveCompare@cpr@@V?$allocator@U?$pair@$$CBV?$basic_string@DU?$char_traits@D@std@@V?$allocator@D@2@@std@@V12@@std@@@2@$0A@@std@@@std@@IEAAPEAU?$_Tree_node@U?$pair@$$CBV?$basic_string@DU?$char_traits@D@std@@V?$allocator@D@2@@std@@V12@@std@@PEAX@1@PEAU21@0@Z
	??$_Copy_nodes@$0A@@?$_Tree@V?$_Tmap_traits@V?$basic_string@DU?$char_traits@D@std@@V?$allocator@D@2@@std@@VEncodedAuthentication@cpr@@U?$less@V?$basic_string@DU?$char_traits@D@std@@V?$allocator@D@2@@std@@@2@V?$allocator@U?$pair@$$CBV?$basic_string@DU?$char_traits@D@std@@V?$allocator@D@2@@std@@VEncodedAuthentication@cpr@@@std@@@2@$0A@@std@@@std@@IEAAPEAU?$_Tree_node@U?$pair@$$CBV?$basic_string@DU?$char_traits@D@std@@V?$allocator@D@2@@std@@VEncodedAuthentication@cpr@@@std@@PEAX@1@PEAU21@0@Z
	??$_Copy_or_move@$0A@U?$pair@$$CBV?$basic_string@DU?$char_traits@D@std@@V?$allocator@D@2@@std@@V12@@std@@@?$_Tree@V?$_Tmap_traits@V?$basic_string@DU?$char_traits@D@std@@V?$allocator@D@2@@std@@V12@U?$less@V?$basic_string@DU?$char_traits@D@std@@V?$allocator@D@2@@std@@@2@V?$allocator@U?$pair@$$CBV?$basic_string@DU?$char_traits@D@std@@V?$allocator@D@2@@std@@V12@@std@@@2@$0A@@std@@@std@@IEAAPEAU?$_Tree_node@U?$pair@$$CBV?$basic_string@DU?$char_traits@D@std@@V?$allocator@D@2@@std@@V12@@std@@PEAX@1@AEAU?$pair@$$CBV?$basic_string@DU?$char_traits@D@std@@V?$allocator@D@2@@std@@V12@@1@@Z
	??$_Copy_or_move@$0A@U?$pair@$$CBV?$basic_string@DU?$char_traits@D@std@@V?$allocator@D@2@@std@@V12@@std@@@?$_Tree@V?$_Tmap_traits@V?$basic_string@DU?$char_traits@D@std@@V?$allocator@D@2@@std@@V12@UCaseInsensitiveCompare@cpr@@V?$allocator@U?$pair@$$CBV?$basic_string@DU?$char_traits@D@std@@V?$allocator@D@2@@std@@V12@@std@@@2@$0A@@std@@@std@@IEAAPEAU?$_Tree_node@U?$pair@$$CBV?$basic_string@DU?$char_traits@D@std@@V?$allocator@D@2@@std@@V12@@std@@PEAX@1@AEAU?$pair@$$CBV?$basic_string@DU?$char_traits@D@std@@V?$allocator@D@2@@std@@V12@@1@@Z
	??$_Copy_or_move@$0A@U?$pair@$$CBV?$basic_string@DU?$char_traits@D@std@@V?$allocator@D@2@@std@@VEncodedAuthentication@cpr@@@std@@@?$_Tree@V?$_Tmap_traits@V?$basic_string@DU?$char_traits@D@std@@V?$allocator@D@2@@std@@VEncodedAuthentication@cpr@@U?$less@V?$basic_string@DU?$char_traits@D@std@@V?$allocator@D@2@@std@@@2@V?$allocator@U?$pair@$$CBV?$basic_string@DU?$char_traits@D@std@@V?$allocator@D@2@@std@@VEncodedAuthentication@cpr@@@std@@@2@$0A@@std@@@std@@IEAAPEAU?$_Tree_node@U?$pair@$$CBV?$basic_string@DU?$char_traits@D@std@@V?$allocator@D@2@@std@@VEncodedAuthentication@cpr@@@std@@PEAX@1@AEAU?$pair@$$CBV?$basic_string@DU?$char_traits@D@std@@V?$allocator@D@2@@std@@VEncodedAuthentication@cpr@@@1@@Z
	??$_Deallocate@$0BA@@std@@YAXPEAX_K@Z
	??$_Deallocate_plain@V?$allocator@U_Container_proxy@std@@@std@@@std@@YAXAEAV?$allocator@U_Container_proxy@std@@@0@QEAU_Container_proxy@0@@Z
	??$_Debug_lt_pred@AEBU?$less@V?$basic_string@DU?$char_traits@D@std@@V?$allocator@D@2@@std@@@std@@AEBV?$basic_string@DU?$char_traits@D@std@@V?$allocator@D@2@@2@AEBV32@$0A@@std@@YA_NAEBU?$less@V?$basic_string@DU?$char_traits@D@std@@V?$allocator@D@2@@std@@@0@AEBV?$basic_string@DU?$char_traits@D@std@@V?$allocator@D@2@@0@1@Z
	??$_Debug_lt_pred@AEBUCaseInsensitiveCompare@cpr@@AEBV?$basic_string@DU?$char_traits@D@std@@V?$allocator@D@2@@std@@AEBV34@$0A@@std@@YA_NAEBUCaseInsensitiveCompare@cpr@@AEBV?$basic_string@DU?$char_traits@D@std@@V?$allocator@D@2@@0@1@Z
	??$_Delete_plain_internal@V?$allocator@U_Container_proxy@std@@@std@@@std@@YAXAEAV?$allocator@U_Container_proxy@std@@@0@QEAU_Container_proxy@0@@Z
	??$_Destroy_in_place@PEAD@std@@YAXAEAPEAD@Z
	??$_Destroy_in_place@PEAU?$_Tree_node@U?$pair@$$CBV?$basic_string@DU?$char_traits@D@std@@V?$allocator@D@2@@std@@V12@@std@@PEAX@std@@@std@@YAXAEAPEAU?$_Tree_node@U?$pair@$$CBV?$basic_string@DU?$char_traits@D@std@@V?$allocator@D@2@@std@@V12@@std@@PEAX@0@@Z
	??$_Destroy_in_place@PEAU?$_Tree_node@U?$pair@$$CBV?$basic_string@DU?$char_traits@D@std@@V?$allocator@D@2@@std@@VEncodedAuthentication@cpr@@@std@@PEAX@std@@@std@@YAXAEAPEAU?$_Tree_node@U?$pair@$$CBV?$basic_string@DU?$char_traits@D@std@@V?$allocator@D@2@@std@@VEncodedAuthentication@cpr@@@std@@PEAX@0@@Z
	??$_Destroy_range@V?$allocator@UPair@cpr@@@std@@@std@@YAXPEAUPair@cpr@@QEAU12@AEAV?$allocator@UPair@cpr@@@0@@Z
	??$_Destroy_range@V?$allocator@UParameter@cpr@@@std@@@std@@YAXPEAUParameter@cpr@@QEAU12@AEAV?$allocator@UParameter@cpr@@@0@@Z
	??$_Destroy_range@V?$allocator@UPart@cpr@@@std@@@std@@YAXPEAUPart@cpr@@QEAU12@AEAV?$allocator@UPart@cpr@@@0@@Z
	??$_Destroy_range@V?$allocator@Ucurl_forms@@@std@@@std@@YAXPEAUcurl_forms@@QEAU1@AEAV?$allocator@Ucurl_forms@@@0@@Z
	??$_Destroy_range@V?$allocator@V?$basic_string@DU?$char_traits@D@std@@V?$allocator@D@2@@std@@@std@@@std@@YAXPEAV?$basic_string@DU?$char_traits@D@std@@V?$allocator@D@2@@0@QEAV10@AEAV?$allocator@V?$basic_string@DU?$char_traits@D@std@@V?$allocator@D@2@@std@@@0@@Z
	??$_Emplace_back@$$V@?$_Uninitialized_backout_al@V?$allocator@V?$basic_string@DU?$char_traits@D@std@@V?$allocator@D@2@@std@@@std@@@std@@QEAAXXZ
	??$_Emplace_back@AEAUParameter@cpr@@@?$_Uninitialized_backout_al@V?$allocator@UParameter@cpr@@@std@@@std@@QEAAXAEAUParameter@cpr@@@Z
	??$_Emplace_back@AEBUPair@cpr@@@?$_Uninitialized_backout_al@V?$allocator@UPair@cpr@@@std@@@std@@QEAAXAEBUPair@cpr@@@Z
	??$_Emplace_back@AEBUParameter@cpr@@@?$_Uninitialized_backout_al@V?$allocator@UParameter@cpr@@@std@@@std@@QEAAXAEBUParameter@cpr@@@Z
	??$_Emplace_back@AEBUPart@cpr@@@?$_Uninitialized_backout_al@V?$allocator@UPart@cpr@@@std@@@std@@QEAAXAEBUPart@cpr@@@Z
	??$_Emplace_back@UPair@cpr@@@?$_Uninitialized_backout_al@V?$allocator@UPair@cpr@@@std@@@std@@QEAAX$$QEAUPair@cpr@@@Z
	??$_Emplace_back@UParameter@cpr@@@?$_Uninitialized_backout_al@V?$allocator@UParameter@cpr@@@std@@@std@@QEAAX$$QEAUParameter@cpr@@@Z
	??$_Emplace_back@Ucurl_forms@@@?$_Uninitialized_backout_al@V?$allocator@Ucurl_forms@@@std@@@std@@QEAAX$$QEAUcurl_forms@@@Z
	??$_Emplace_back@V?$basic_string@DU?$char_traits@D@std@@V?$allocator@D@2@@std@@@?$_Uninitialized_backout_al@V?$allocator@V?$basic_string@DU?$char_traits@D@std@@V?$allocator@D@2@@std@@@std@@@std@@QEAAX$$QEAV?$basic_string@DU?$char_traits@D@std@@V?$allocator@D@2@@1@@Z
	??$_Emplace_back_with_unused_capacity@AEBUPair@cpr@@@?$vector@UPair@cpr@@V?$allocator@UPair@cpr@@@std@@@std@@AEAAAEAUPair@cpr@@AEBU23@@Z
	??$_Emplace_back_with_unused_capacity@AEBUParameter@cpr@@@?$vector@UParameter@cpr@@V?$allocator@UParameter@cpr@@@std@@@std@@AEAAAEAUParameter@cpr@@AEBU23@@Z
	??$_Emplace_back_with_unused_capacity@AEBV?$basic_string@DU?$char_traits@D@std@@V?$allocator@D@2@@std@@@?$vector@V?$basic_string@DU?$char_traits@D@std@@V?$allocator@D@2@@std@@V?$allocator@V?$basic_string@DU?$char_traits@D@std@@V?$allocator@D@2@@std@@@2@@std@@AEAAAEAV?$basic_string@DU?$char_traits@D@std@@V?$allocator@D@2@@1@AEBV21@@Z
	??$_Emplace_back_with_unused_capacity@UPair@cpr@@@?$vector@UPair@cpr@@V?$allocator@UPair@cpr@@@std@@@std@@AEAAAEAUPair@cpr@@$$QEAU23@@Z
	??$_Emplace_back_with_unused_capacity@UParameter@cpr@@@?$vector@UParameter@cpr@@V?$allocator@UParameter@cpr@@@std@@@std@@AEAAAEAUParameter@cpr@@$$QEAU23@@Z
	??$_Emplace_back_with_unused_capacity@Ucurl_forms@@@?$vector@Ucurl_forms@@V?$allocator@Ucurl_forms@@@std@@@std@@AEAAAEAUcurl_forms@@$$QEAU2@@Z
	??$_Emplace_hint@AEBU?$pair@$$CBV?$basic_string@DU?$char_traits@D@std@@V?$allocator@D@2@@std@@V12@@std@@@?$_Tree@V?$_Tmap_traits@V?$basic_string@DU?$char_traits@D@std@@V?$allocator@D@2@@std@@V12@U?$less@V?$basic_string@DU?$char_traits@D@std@@V?$allocator@D@2@@std@@@2@V?$allocator@U?$pair@$$CBV?$basic_string@DU?$char_traits@D@std@@V?$allocator@D@2@@std@@V12@@std@@@2@$0A@@std@@@std@@IEAAPEAU?$_Tree_node@U?$pair@$$CBV?$basic_string@DU?$char_traits@D@std@@V?$allocator@D@2@@std@@V12@@std@@PEAX@1@QEAU21@AEBU?$pair@$$CBV?$basic_string@DU?$char_traits@D@std@@V?$allocator@D@2@@std@@V12@@1@@Z
	??$_Emplace_one_at_back@AEBUPair@cpr@@@?$vector@UPair@cpr@@V?$allocator@UPair@cpr@@@std@@@std@@AEAAAEAUPair@cpr@@AEBU23@@Z
	??$_Emplace_one_at_back@AEBUParameter@cpr@@@?$vector@UParameter@cpr@@V?$allocator@UParameter@cpr@@@std@@@std@@AEAAAEAUParameter@cpr@@AEBU23@@Z
	??$_Emplace_one_at_back@AEBV?$basic_string@DU?$char_traits@D@std@@V?$allocator@D@2@@std@@@?$vector@V?$basic_string@DU?$char_traits@D@std@@V?$allocator@D@2@@std@@V?$allocator@V?$basic_string@DU?$char_traits@D@std@@V?$allocator@D@2@@std@@@2@@std@@AEAAAEAV?$basic_string@DU?$char_traits@D@std@@V?$allocator@D@2@@1@AEBV21@@Z
	??$_Emplace_one_at_back@UPair@cpr@@@?$vector@UPair@cpr@@V?$allocator@UPair@cpr@@@std@@@std@@AEAAAEAUPair@cpr@@$$QEAU23@@Z
	??$_Emplace_one_at_back@UParameter@cpr@@@?$vector@UParameter@cpr@@V?$allocator@UParameter@cpr@@@std@@@std@@AEAAAEAUParameter@cpr@@$$QEAU23@@Z
	??$_Emplace_one_at_back@Ucurl_forms@@@?$vector@Ucurl_forms@@V?$allocator@Ucurl_forms@@@std@@@std@@AEAAAEAUcurl_forms@@$$QEAU2@@Z
	??$_Emplace_reallocate@AEBUPair@cpr@@@?$vector@UPair@cpr@@V?$allocator@UPair@cpr@@@std@@@std@@AEAAPEAUPair@cpr@@QEAU23@AEBU23@@Z
	??$_Emplace_reallocate@AEBUParameter@cpr@@@?$vector@UParameter@cpr@@V?$allocator@UParameter@cpr@@@std@@@std@@AEAAPEAUParameter@cpr@@QEAU23@AEBU23@@Z
	??$_Emplace_reallocate@AEBV?$basic_string@DU?$char_traits@D@std@@V?$allocator@D@2@@std@@@?$vector@V?$basic_string@DU?$char_traits@D@std@@V?$allocator@D@2@@std@@V?$allocator@V?$basic_string@DU?$char_traits@D@std@@V?$allocator@D@2@@std@@@2@@std@@AEAAPEAV?$basic_string@DU?$char_traits@D@std@@V?$allocator@D@2@@1@QEAV21@AEBV21@@Z
	??$_Emplace_reallocate@UPair@cpr@@@?$vector@UPair@cpr@@V?$allocator@UPair@cpr@@@std@@@std@@AEAAPEAUPair@cpr@@QEAU23@$$QEAU23@@Z
	??$_Emplace_reallocate@UParameter@cpr@@@?$vector@UParameter@cpr@@V?$allocator@UParameter@cpr@@@std@@@std@@AEAAPEAUParameter@cpr@@QEAU23@$$QEAU23@@Z
	??$_Emplace_reallocate@Ucurl_forms@@@?$vector@Ucurl_forms@@V?$allocator@Ucurl_forms@@@std@@@std@@AEAAPEAUcurl_forms@@QEAU2@$$QEAU2@@Z
	??$_Erase_head@V?$allocator@U?$_Tree_node@U?$pair@$$CBV?$basic_string@DU?$char_traits@D@std@@V?$allocator@D@2@@std@@V12@@std@@PEAX@std@@@std@@@?$_Tree_val@U?$_Tree_simple_types@U?$pair@$$CBV?$basic_string@DU?$char_traits@D@std@@V?$allocator@D@2@@std@@V12@@std@@@std@@@std@@QEAAXAEAV?$allocator@U?$_Tree_node@U?$pair@$$CBV?$basic_string@DU?$char_traits@D@std@@V?$allocator@D@2@@std@@V12@@std@@PEAX@std@@@1@@Z
	??$_Erase_head@V?$allocator@U?$_Tree_node@U?$pair@$$CBV?$basic_string@DU?$char_traits@D@std@@V?$allocator@D@2@@std@@VEncodedAuthentication@cpr@@@std@@PEAX@std@@@std@@@?$_Tree_val@U?$_Tree_simple_types@U?$pair@$$CBV?$basic_string@DU?$char_traits@D@std@@V?$allocator@D@2@@std@@VEncodedAuthentication@cpr@@@std@@@std@@@std@@QEAAXAEAV?$allocator@U?$_Tree_node@U?$pair@$$CBV?$basic_string@DU?$char_traits@D@std@@V?$allocator@D@2@@std@@VEncodedAuthentication@cpr@@@std@@PEAX@std@@@1@@Z
	??$_Erase_tree@V?$allocator@U?$_Tree_node@U?$pair@$$CBV?$basic_string@DU?$char_traits@D@std@@V?$allocator@D@2@@std@@V12@@std@@PEAX@std@@@std@@@?$_Tree_val@U?$_Tree_simple_types@U?$pair@$$CBV?$basic_string@DU?$char_traits@D@std@@V?$allocator@D@2@@std@@V12@@std@@@std@@@std@@QEAAXAEAV?$allocator@U?$_Tree_node@U?$pair@$$CBV?$basic_string@DU?$char_traits@D@std@@V?$allocator@D@2@@std@@V12@@std@@PEAX@std@@@1@PEAU?$_Tree_node@U?$pair@$$CBV?$basic_string@DU?$char_traits@D@std@@V?$allocator@D@2@@std@@V12@@std@@PEAX@1@@Z
	??$_Erase_tree@V?$allocator@U?$_Tree_node@U?$pair@$$CBV?$basic_string@DU?$char_traits@D@std@@V?$allocator@D@2@@std@@VEncodedAuthentication@cpr@@@std@@PEAX@std@@@std@@@?$_Tree_val@U?$_Tree_simple_types@U?$pair@$$CBV?$basic_string@DU?$char_traits@D@std@@V?$allocator@D@2@@std@@VEncodedAuthentication@cpr@@@std@@@std@@@std@@QEAAXAEAV?$allocator@U?$_Tree_node@U?$pair@$$CBV?$basic_string@DU?$char_traits@D@std@@V?$allocator@D@2@@std@@VEncodedAuthentication@cpr@@@std@@PEAX@std@@@1@PEAU?$_Tree_node@U?$pair@$$CBV?$basic_string@DU?$char_traits@D@std@@V?$allocator@D@2@@std@@VEncodedAuthentication@cpr@@@std@@PEAX@1@@Z
	??$_Erase_tree_and_orphan@V?$allocator@U?$_Tree_node@U?$pair@$$CBV?$basic_string@DU?$char_traits@D@std@@V?$allocator@D@2@@std@@V12@@std@@PEAX@std@@@std@@@?$_Tree_val@U?$_Tree_simple_types@U?$pair@$$CBV?$basic_string@DU?$char_traits@D@std@@V?$allocator@D@2@@std@@V12@@std@@@std@@@std@@QEAAXAEAV?$allocator@U?$_Tree_node@U?$pair@$$CBV?$basic_string@DU?$char_traits@D@std@@V?$allocator@D@2@@std@@V12@@std@@PEAX@std@@@1@PEAU?$_Tree_node@U?$pair@$$CBV?$basic_string@DU?$char_traits@D@std@@V?$allocator@D@2@@std@@V12@@std@@PEAX@1@@Z
	??$_Erase_tree_and_orphan@V?$allocator@U?$_Tree_node@U?$pair@$$CBV?$basic_string@DU?$char_traits@D@std@@V?$allocator@D@2@@std@@VEncodedAuthentication@cpr@@@std@@PEAX@std@@@std@@@?$_Tree_val@U?$_Tree_simple_types@U?$pair@$$CBV?$basic_string@DU?$char_traits@D@std@@V?$allocator@D@2@@std@@VEncodedAuthentication@cpr@@@std@@@std@@@std@@QEAAXAEAV?$allocator@U?$_Tree_node@U?$pair@$$CBV?$basic_string@DU?$char_traits@D@std@@V?$allocator@D@2@@std@@VEncodedAuthentication@cpr@@@std@@PEAX@std@@@1@PEAU?$_Tree_node@U?$pair@$$CBV?$basic_string@DU?$char_traits@D@std@@V?$allocator@D@2@@std@@VEncodedAuthentication@cpr@@@std@@PEAX@1@@Z
	??$_Find@V?$basic_string@DU?$char_traits@D@std@@V?$allocator@D@2@@std@@@?$_Tree@V?$_Tmap_traits@V?$basic_string@DU?$char_traits@D@std@@V?$allocator@D@2@@std@@V12@UCaseInsensitiveCompare@cpr@@V?$allocator@U?$pair@$$CBV?$basic_string@DU?$char_traits@D@std@@V?$allocator@D@2@@std@@V12@@std@@@2@$0A@@std@@@std@@AEBAPEAU?$_Tree_node@U?$pair@$$CBV?$basic_string@DU?$char_traits@D@std@@V?$allocator@D@2@@std@@V12@@std@@PEAX@1@AEBV?$basic_string@DU?$char_traits@D@std@@V?$allocator@D@2@@1@@Z
	??$_Find_hint@V?$basic_string@DU?$char_traits@D@std@@V?$allocator@D@2@@std@@@?$_Tree@V?$_Tmap_traits@V?$basic_string@DU?$char_traits@D@std@@V?$allocator@D@2@@std@@V12@U?$less@V?$basic_string@DU?$char_traits@D@std@@V?$allocator@D@2@@std@@@2@V?$allocator@U?$pair@$$CBV?$basic_string@DU?$char_traits@D@std@@V?$allocator@D@2@@std@@V12@@std@@@2@$0A@@std@@@std@@IEBA?AU?$_Tree_find_hint_result@PEAU?$_Tree_node@U?$pair@$$CBV?$basic_string@DU?$char_traits@D@std@@V?$allocator@D@2@@std@@V12@@std@@PEAX@std@@@1@QEAU?$_Tree_node@U?$pair@$$CBV?$basic_string@DU?$char_traits@D@std@@V?$allocator@D@2@@std@@V12@@std@@PEAX@1@AEBV?$basic_string@DU?$char_traits@D@std@@V?$allocator@D@2@@1@@Z
	??$_Find_lower_bound@V?$basic_string@DU?$char_traits@D@std@@V?$allocator@D@2@@std@@@?$_Tree@V?$_Tmap_traits@V?$basic_string@DU?$char_traits@D@std@@V?$allocator@D@2@@std@@V12@U?$less@V?$basic_string@DU?$char_traits@D@std@@V?$allocator@D@2@@std@@@2@V?$allocator@U?$pair@$$CBV?$basic_string@DU?$char_traits@D@std@@V?$allocator@D@2@@std@@V12@@std@@@2@$0A@@std@@@std@@IEBA?AU?$_Tree_find_result@PEAU?$_Tree_node@U?$pair@$$CBV?$basic_string@DU?$char_traits@D@std@@V?$allocator@D@2@@std@@V12@@std@@PEAX@std@@@1@AEBV?$basic_string@DU?$char_traits@D@std@@V?$allocator@D@2@@1@@Z
	??$_Find_lower_bound@V?$basic_string@DU?$char_traits@D@std@@V?$allocator@D@2@@std@@@?$_Tree@V?$_Tmap_traits@V?$basic_string@DU?$char_traits@D@std@@V?$allocator@D@2@@std@@V12@UCaseInsensitiveCompare@cpr@@V?$allocator@U?$pair@$$CBV?$basic_string@DU?$char_traits@D@std@@V?$allocator@D@2@@std@@V12@@std@@@2@$0A@@std@@@std@@IEBA?AU?$_Tree_find_result@PEAU?$_Tree_node@U?$pair@$$CBV?$basic_string@DU?$char_traits@D@std@@V?$allocator@D@2@@std@@V12@@std@@PEAX@std@@@1@AEBV?$basic_string@DU?$char_traits@D@std@@V?$allocator@D@2@@1@@Z
	??$_Find_lower_bound@V?$basic_string@DU?$char_traits@D@std@@V?$allocator@D@2@@std@@@?$_Tree@V?$_Tmap_traits@V?$basic_string@DU?$char_traits@D@std@@V?$allocator@D@2@@std@@VEncodedAuthentication@cpr@@U?$less@V?$basic_string@DU?$char_traits@D@std@@V?$allocator@D@2@@std@@@2@V?$allocator@U?$pair@$$CBV?$basic_string@DU?$char_traits@D@std@@V?$allocator@D@2@@std@@VEncodedAuthentication@cpr@@@std@@@2@$0A@@std@@@std@@IEBA?AU?$_Tree_find_result@PEAU?$_Tree_node@U?$pair@$$CBV?$basic_string@DU?$char_traits@D@std@@V?$allocator@D@2@@std@@VEncodedAuthentication@cpr@@@std@@PEAX@std@@@1@AEBV?$basic_string@DU?$char_traits@D@std@@V?$allocator@D@2@@1@@Z
	??$_Freenode0@V?$allocator@U?$_Tree_node@U?$pair@$$CBV?$basic_string@DU?$char_traits@D@std@@V?$allocator@D@2@@std@@V12@@std@@PEAX@std@@@std@@@?$_Tree_node@U?$pair@$$CBV?$basic_string@DU?$char_traits@D@std@@V?$allocator@D@2@@std@@V12@@std@@PEAX@std@@SAXAEAV?$allocator@U?$_Tree_node@U?$pair@$$CBV?$basic_string@DU?$char_traits@D@std@@V?$allocator@D@2@@std@@V12@@std@@PEAX@std@@@1@PEAU01@@Z
	??$_Freenode0@V?$allocator@U?$_Tree_node@U?$pair@$$CBV?$basic_string@DU?$char_traits@D@std@@V?$allocator@D@2@@std@@VEncodedAuthentication@cpr@@@std@@PEAX@std@@@std@@@?$_Tree_node@U?$pair@$$CBV?$basic_string@DU?$char_traits@D@std@@V?$allocator@D@2@@std@@VEncodedAuthentication@cpr@@@std@@PEAX@std@@SAXAEAV?$allocator@U?$_Tree_node@U?$pair@$$CBV?$basic_string@DU?$char_traits@D@std@@V?$allocator@D@2@@std@@VEncodedAuthentication@cpr@@@std@@PEAX@std@@@1@PEAU01@@Z
	??$_Freenode@V?$allocator@U?$_Tree_node@U?$pair@$$CBV?$basic_string@DU?$char_traits@D@std@@V?$allocator@D@2@@std@@V12@@std@@PEAX@std@@@std@@@?$_Tree_node@U?$pair@$$CBV?$basic_string@DU?$char_traits@D@std@@V?$allocator@D@2@@std@@V12@@std@@PEAX@std@@SAXAEAV?$allocator@U?$_Tree_node@U?$pair@$$CBV?$basic_string@DU?$char_traits@D@std@@V?$allocator@D@2@@std@@V12@@std@@PEAX@std@@@1@PEAU01@@Z
	??$_Freenode@V?$allocator@U?$_Tree_node@U?$pair@$$CBV?$basic_string@DU?$char_traits@D@std@@V?$allocator@D@2@@std@@VEncodedAuthentication@cpr@@@std@@PEAX@std@@@std@@@?$_Tree_node@U?$pair@$$CBV?$basic_string@DU?$char_traits@D@std@@V?$allocator@D@2@@std@@VEncodedAuthentication@cpr@@@std@@PEAX@std@@SAXAEAV?$allocator@U?$_Tree_node@U?$pair@$$CBV?$basic_string@DU?$char_traits@D@std@@V?$allocator@D@2@@std@@VEncodedAuthentication@cpr@@@std@@PEAX@std@@@1@PEAU01@@Z
	??$_Get_size_of_n@$00@std@@YA_K_K@Z
	??$_Get_size_of_n@$0BA@@std@@YA_K_K@Z
	??$_Get_size_of_n@$0CI@@std@@YA_K_K@Z
	??$_Get_size_of_n@$0FA@@std@@YA_K_K@Z
	??$_Get_size_of_n@$0HA@@std@@YA_K_K@Z
	??$_Get_size_of_n@$0HI@@std@@YA_K_K@Z
	??$_Get_size_of_n@$0II@@std@@YA_K_K@Z
	??$_Get_unwrapped@AEAPEAD@std@@YA?A_TAEAPEAD@Z
	??$_Get_unwrapped@AEBQEAUPair@cpr@@@std@@YA?A_TAEBQEAUPair@cpr@@@Z
	??$_Get_unwrapped@AEBQEAUParameter@cpr@@@std@@YA?A_TAEBQEAUParameter@cpr@@@Z
	??$_Get_unwrapped@AEBQEAUcurl_forms@@@std@@YA?A_TAEBQEAUcurl_forms@@@Z
	??$_Get_unwrapped@AEBQEAV?$basic_string@DU?$char_traits@D@std@@V?$allocator@D@2@@std@@@std@@YA?A_TAEBQEAV?$basic_string@DU?$char_traits@D@std@@V?$allocator@D@2@@0@@Z
	??$_Get_unwrapped@AEBQEBUPair@cpr@@@std@@YA?A_TAEBQEBUPair@cpr@@@Z
	??$_Get_unwrapped@AEBQEBUParameter@cpr@@@std@@YA?A_TAEBQEBUParameter@cpr@@@Z
	??$_Get_unwrapped@AEBV?$_String_const_iterator@V?$_String_val@U?$_Simple_types@D@std@@@std@@@std@@@std@@YA?A_TAEBV?$_String_const_iterator@V?$_String_val@U?$_Simple_types@D@std@@@std@@@0@@Z
	??$_Get_unwrapped@PEAUParameter@cpr@@@std@@YA?A_T$$QEAPEAUParameter@cpr@@@Z
	??$_Get_unwrapped@PEBUPair@cpr@@@std@@YA?A_T$$QEAPEBUPair@cpr@@@Z
	??$_Get_unwrapped@PEBUParameter@cpr@@@std@@YA?A_T$$QEAPEBUParameter@cpr@@@Z
	??$_Get_unwrapped@PEBUPart@cpr@@@std@@YA?A_T$$QEAPEBUPart@cpr@@@Z
	??$_Get_unwrapped_n@AEAV?$back_insert_iterator@V?$vector@UPair@cpr@@V?$allocator@UPair@cpr@@@std@@@std@@@std@@_J@std@@YA?A_TAEAV?$back_insert_iterator@V?$vector@UPair@cpr@@V?$allocator@UPair@cpr@@@std@@@std@@@0@_J@Z
	??$_Get_unwrapped_n@AEAV?$back_insert_iterator@V?$vector@UParameter@cpr@@V?$allocator@UParameter@cpr@@@std@@@std@@@std@@_J@std@@YA?A_TAEAV?$back_insert_iterator@V?$vector@UParameter@cpr@@V?$allocator@UParameter@cpr@@@std@@@std@@@0@_J@Z
	??$_Getvals@_W@?$time_get@DV?$istreambuf_iterator@DU?$char_traits@D@std@@@std@@@std@@IEAAX_WAEBV_Locinfo@1@@Z
	??$_Getvals@_W@?$time_get@_WV?$istreambuf_iterator@_WU?$char_traits@_W@std@@@std@@@std@@IEAAX_WAEBV_Locinfo@1@@Z
	??$_Idl_distance@PEBUPair@cpr@@PEBU12@@std@@YA?A_PAEBQEBUPair@cpr@@0@Z
	??$_Idl_distance@PEBUParameter@cpr@@PEBU12@@std@@YA?A_PAEBQEBUParameter@cpr@@0@Z
	??$_Insert_range_unchecked@PEBU?$pair@$$CBV?$basic_string@DU?$char_traits@D@std@@V?$allocator@D@2@@std@@V12@@std@@PEBU12@@?$_Tree@V?$_Tmap_traits@V?$basic_string@DU?$char_traits@D@std@@V?$allocator@D@2@@std@@V12@U?$less@V?$basic_string@DU?$char_traits@D@std@@V?$allocator@D@2@@std@@@2@V?$allocator@U?$pair@$$CBV?$basic_string@DU?$char_traits@D@std@@V?$allocator@D@2@@std@@V12@@std@@@2@$0A@@std@@@std@@IEAAXPEBU?$pair@$$CBV?$basic_string@DU?$char_traits@D@std@@V?$allocator@D@2@@std@@V12@@1@QEBU21@@Z
	??$_Insert_string@DU?$char_traits@D@std@@_K@std@@YAAEAV?$basic_ostream@DU?$char_traits@D@std@@@0@AEAV10@QEBD_K@Z
	??$_Integral_to_string@D_J@std@@YA?AV?$basic_string@DU?$char_traits@D@std@@V?$allocator@D@2@@0@_J@Z
	??$_Kfn@$$CBV?$basic_string@DU?$char_traits@D@std@@V?$allocator@D@2@@std@@V12@@?$_Tmap_traits@V?$basic_string@DU?$char_traits@D@std@@V?$allocator@D@2@@std@@V12@U?$less@V?$basic_string@DU?$char_traits@D@std@@V?$allocator@D@2@@std@@@2@V?$allocator@U?$pair@$$CBV?$basic_string@DU?$char_traits@D@std@@V?$allocator@D@2@@std@@V12@@std@@@2@$0A@@std@@SAAEBV?$basic_string@DU?$char_traits@D@std@@V?$allocator@D@2@@1@AEBU?$pair@$$CBV?$basic_string@DU?$char_traits@D@std@@V?$allocator@D@2@@std@@V12@@1@@Z
	??$_Kfn@$$CBV?$basic_string@DU?$char_traits@D@std@@V?$allocator@D@2@@std@@V12@@?$_Tmap_traits@V?$basic_string@DU?$char_traits@D@std@@V?$allocator@D@2@@std@@V12@UCaseInsensitiveCompare@cpr@@V?$allocator@U?$pair@$$CBV?$basic_string@DU?$char_traits@D@std@@V?$allocator@D@2@@std@@V12@@std@@@2@$0A@@std@@SAAEBV?$basic_string@DU?$char_traits@D@std@@V?$allocator@D@2@@1@AEBU?$pair@$$CBV?$basic_string@DU?$char_traits@D@std@@V?$allocator@D@2@@std@@V12@@1@@Z
	??$_Kfn@$$CBV?$basic_string@DU?$char_traits@D@std@@V?$allocator@D@2@@std@@VEncodedAuthentication@cpr@@@?$_Tmap_traits@V?$basic_string@DU?$char_traits@D@std@@V?$allocator@D@2@@std@@VEncodedAuthentication@cpr@@U?$less@V?$basic_string@DU?$char_traits@D@std@@V?$allocator@D@2@@std@@@2@V?$allocator@U?$pair@$$CBV?$basic_string@DU?$char_traits@D@std@@V?$allocator@D@2@@std@@VEncodedAuthentication@cpr@@@std@@@2@$0A@@std@@SAAEBV?$basic_string@DU?$char_traits@D@std@@V?$allocator@D@2@@1@AEBU?$pair@$$CBV?$basic_string@DU?$char_traits@D@std@@V?$allocator@D@2@@std@@VEncodedAuthentication@cpr@@@1@@Z
	??$_Lower_bound_duplicate@V?$basic_string@DU?$char_traits@D@std@@V?$allocator@D@2@@std@@@?$_Tree@V?$_Tmap_traits@V?$basic_string@DU?$char_traits@D@std@@V?$allocator@D@2@@std@@V12@U?$less@V?$basic_string@DU?$char_traits@D@std@@V?$allocator@D@2@@std@@@2@V?$allocator@U?$pair@$$CBV?$basic_string@DU?$char_traits@D@std@@V?$allocator@D@2@@std@@V12@@std@@@2@$0A@@std@@@std@@IEBA_NQEAU?$_Tree_node@U?$pair@$$CBV?$basic_string@DU?$char_traits@D@std@@V?$allocator@D@2@@std@@V12@@std@@PEAX@1@AEBV?$basic_string@DU?$char_traits@D@std@@V?$allocator@D@2@@1@@Z
	??$_Lower_bound_duplicate@V?$basic_string@DU?$char_traits@D@std@@V?$allocator@D@2@@std@@@?$_Tree@V?$_Tmap_traits@V?$basic_string@DU?$char_traits@D@std@@V?$allocator@D@2@@std@@V12@UCaseInsensitiveCompare@cpr@@V?$allocator@U?$pair@$$CBV?$basic_string@DU?$char_traits@D@std@@V?$allocator@D@2@@std@@V12@@std@@@2@$0A@@std@@@std@@IEBA_NQEAU?$_Tree_node@U?$pair@$$CBV?$basic_string@DU?$char_traits@D@std@@V?$allocator@D@2@@std@@V12@@std@@PEAX@1@AEBV?$basic_string@DU?$char_traits@D@std@@V?$allocator@D@2@@1@@Z
	??$_Lower_bound_duplicate@V?$basic_string@DU?$char_traits@D@std@@V?$allocator@D@2@@std@@@?$_Tree@V?$_Tmap_traits@V?$basic_string@DU?$char_traits@D@std@@V?$allocator@D@2@@std@@VEncodedAuthentication@cpr@@U?$less@V?$basic_string@DU?$char_traits@D@std@@V?$allocator@D@2@@std@@@2@V?$allocator@U?$pair@$$CBV?$basic_string@DU?$char_traits@D@std@@V?$allocator@D@2@@std@@VEncodedAuthentication@cpr@@@std@@@2@$0A@@std@@@std@@IEBA_NQEAU?$_Tree_node@U?$pair@$$CBV?$basic_string@DU?$char_traits@D@std@@V?$allocator@D@2@@std@@VEncodedAuthentication@cpr@@@std@@PEAX@1@AEBV?$basic_string@DU?$char_traits@D@std@@V?$allocator@D@2@@1@@Z
	??$_Maklocstr@D@std@@YAPEADPEBDPEADAEBU_Cvtvec@@@Z
	??$_Maklocstr@_W@std@@YAPEA_WPEBDPEA_WAEBU_Cvtvec@@@Z
	??$_Move_construct_from@UCurlHolder@cpr@@@?$_Ptr_base@UCurlHolder@cpr@@@std@@IEAAX$$QEAV01@@Z
	??$_Pocca@V?$allocator@D@std@@@std@@YAXAEAV?$allocator@D@0@AEBV10@@Z
	??$_Pocca@V?$allocator@U?$_Tree_node@U?$pair@$$CBV?$basic_string@DU?$char_traits@D@std@@V?$allocator@D@2@@std@@V12@@std@@PEAX@std@@@std@@@std@@YAXAEAV?$allocator@U?$_Tree_node@U?$pair@$$CBV?$basic_string@DU?$char_traits@D@std@@V?$allocator@D@2@@std@@V12@@std@@PEAX@std@@@0@AEBV10@@Z
	??$_Pocca@V?$allocator@U?$_Tree_node@U?$pair@$$CBV?$basic_string@DU?$char_traits@D@std@@V?$allocator@D@2@@std@@VEncodedAuthentication@cpr@@@std@@PEAX@std@@@std@@@std@@YAXAEAV?$allocator@U?$_Tree_node@U?$pair@$$CBV?$basic_string@DU?$char_traits@D@std@@V?$allocator@D@2@@std@@VEncodedAuthentication@cpr@@@std@@PEAX@std@@@0@AEBV10@@Z
	??$_Pocca@V?$allocator@UParameter@cpr@@@std@@@std@@YAXAEAV?$allocator@UParameter@cpr@@@0@AEBV10@@Z
	??$_Pocma@V?$allocator@D@std@@@std@@YAXAEAV?$allocator@D@0@0@Z
	??$_Pocma@V?$allocator@U?$_Tree_node@U?$pair@$$CBV?$basic_string@DU?$char_traits@D@std@@V?$allocator@D@2@@std@@V12@@std@@PEAX@std@@@std@@@std@@YAXAEAV?$allocator@U?$_Tree_node@U?$pair@$$CBV?$basic_string@DU?$char_traits@D@std@@V?$allocator@D@2@@std@@V12@@std@@PEAX@std@@@0@0@Z
	??$_Pocma@V?$allocator@U?$_Tree_node@U?$pair@$$CBV?$basic_string@DU?$char_traits@D@std@@V?$allocator@D@2@@std@@VEncodedAuthentication@cpr@@@std@@PEAX@std@@@std@@@std@@YAXAEAV?$allocator@U?$_Tree_node@U?$pair@$$CBV?$basic_string@DU?$char_traits@D@std@@V?$allocator@D@2@@std@@VEncodedAuthentication@cpr@@@std@@PEAX@std@@@0@0@Z
	??$_Pocma@V?$allocator@UParameter@cpr@@@std@@@std@@YAXAEAV?$allocator@UParameter@cpr@@@0@0@Z
	??$_Reallocate_for@V<lambda_66f57f934f28d61049862f64df852ff0>@@PEBD@?$basic_string@DU?$char_traits@D@std@@V?$allocator@D@2@@std@@AEAAAEAV01@_KV<lambda_66f57f934f28d61049862f64df852ff0>@@PEBD@Z
	??$_Reallocate_grow_by@V<lambda_319d5e083f45f90dcdce5dce53cbb275>@@D@?$basic_string@DU?$char_traits@D@std@@V?$allocator@D@2@@std@@AEAAAEAV01@_KV<lambda_319d5e083f45f90dcdce5dce53cbb275>@@D@Z
	??$_Reallocate_grow_by@V<lambda_65e615be2a453ca0576c979606f46740>@@PEBD_K@?$basic_string@DU?$char_traits@D@std@@V?$allocator@D@2@@std@@AEAAAEAV01@_KV<lambda_65e615be2a453ca0576c979606f46740>@@PEBD_K@Z
	??$_Reallocate_grow_by@V<lambda_9013ee9e23efe4882b67eff5b0ecf103>@@$$V@?$basic_string@DU?$char_traits@D@std@@V?$allocator@D@2@@std@@AEAAAEAV01@_KV<lambda_9013ee9e23efe4882b67eff5b0ecf103>@@@Z
	??$_Reallocate_grow_by@V<lambda_e1befb086ad3257e3f042a63030725f7>@@_KD@?$basic_string@DU?$char_traits@D@std@@V?$allocator@D@2@@std@@AEAAAEAV01@_KV<lambda_e1befb086ad3257e3f042a63030725f7>@@_KD@Z
	??$_Reallocate_grow_by@V<lambda_f3a66ab6a0570788f31503db83886f49>@@_KPEBD_K@?$basic_string@DU?$char_traits@D@std@@V?$allocator@D@2@@std@@AEAAAEAV01@_KV<lambda_f3a66ab6a0570788f31503db83886f49>@@_KPEBD2@Z
	??$_Refancy@PEBD$0A@@std@@YAPEBDPEBD@Z
	??$_Resize@U_Value_init_tag@std@@@?$vector@V?$basic_string@DU?$char_traits@D@std@@V?$allocator@D@2@@std@@V?$allocator@V?$basic_string@DU?$char_traits@D@std@@V?$allocator@D@2@@std@@@2@@std@@AEAAX_KAEBU_Value_init_tag@1@@Z
	??$_Resize_reallocate@U_Value_init_tag@std@@@?$vector@V?$basic_string@DU?$char_traits@D@std@@V?$allocator@D@2@@std@@V?$allocator@V?$basic_string@DU?$char_traits@D@std@@V?$allocator@D@2@@std@@@2@@std@@AEAAX_KAEBU_Value_init_tag@1@@Z
	??$_Seek_wrapped@V?$back_insert_iterator@V?$vector@UPair@cpr@@V?$allocator@UPair@cpr@@@std@@@std@@@std@@AEAV12@@std@@YAXAEAV?$back_insert_iterator@V?$vector@UPair@cpr@@V?$allocator@UPair@cpr@@@std@@@std@@@0@0@Z
	??$_Seek_wrapped@V?$back_insert_iterator@V?$vector@UParameter@cpr@@V?$allocator@UParameter@cpr@@@std@@@std@@@std@@AEAV12@@std@@YAXAEAV?$back_insert_iterator@V?$vector@UParameter@cpr@@V?$allocator@UParameter@cpr@@@std@@@std@@@0@0@Z
	??$_Set_ptr_rep_and_enable_shared@UCurlHolder@cpr@@@?$shared_ptr@UCurlHolder@cpr@@@std@@AEAAXQEAUCurlHolder@cpr@@QEAV_Ref_count_base@1@@Z
	??$_To_address@PEAUcurl_forms@@@std@@YA?A_PAEBQEAUcurl_forms@@@Z
	??$_Traits_compare@U?$char_traits@D@std@@@std@@YAHQEBD_K01@Z
	??$_Traits_equal@U?$char_traits@D@std@@@std@@YA_NQEBD_K01@Z
	??$_Traits_find_ch@U?$char_traits@D@std@@@std@@YA_KQEBD_K1D@Z
	??$_Traits_find_first_not_of@U?$char_traits@D@std@@$00@std@@YA_KQEBD_K101@Z
	??$_Traits_find_first_not_of@U?$char_traits@D@std@@$0A@@std@@YA_KQEBD_K101@Z
	??$_Traits_find_first_of@U?$char_traits@D@std@@$00@std@@YA_KQEBD_K101@Z
	??$_Traits_find_first_of@U?$char_traits@D@std@@$0A@@std@@YA_KQEBD_K101@Z
	??$_Traits_find_last_not_of@U?$char_traits@D@std@@$00@std@@YA_KQEBD_K101@Z
	??$_Traits_find_last_not_of@U?$char_traits@D@std@@$0A@@std@@YA_KQEBD_K101@Z
	??$_Try_emplace@AEBV?$basic_string@DU?$char_traits@D@std@@V?$allocator@D@2@@std@@$$V@?$map@V?$basic_string@DU?$char_traits@D@std@@V?$allocator@D@2@@std@@V12@U?$less@V?$basic_string@DU?$char_traits@D@std@@V?$allocator@D@2@@std@@@2@V?$allocator@U?$pair@$$CBV?$basic_string@DU?$char_traits@D@std@@V?$allocator@D@2@@std@@V12@@std@@@2@@std@@AEAA?AU?$pair@PEAU?$_Tree_node@U?$pair@$$CBV?$basic_string@DU?$char_traits@D@std@@V?$allocator@D@2@@std@@V12@@std@@PEAX@std@@_N@1@AEBV?$basic_string@DU?$char_traits@D@std@@V?$allocator@D@2@@1@@Z
	??$_Try_emplace@AEBV?$basic_string@DU?$char_traits@D@std@@V?$allocator@D@2@@std@@$$V@?$map@V?$basic_string@DU?$char_traits@D@std@@V?$allocator@D@2@@std@@V12@UCaseInsensitiveCompare@cpr@@V?$allocator@U?$pair@$$CBV?$basic_string@DU?$char_traits@D@std@@V?$allocator@D@2@@std@@V12@@std@@@2@@std@@AEAA?AU?$pair@PEAU?$_Tree_node@U?$pair@$$CBV?$basic_string@DU?$char_traits@D@std@@V?$allocator@D@2@@std@@V12@@std@@PEAX@std@@_N@1@AEBV?$basic_string@DU?$char_traits@D@std@@V?$allocator@D@2@@1@@Z
	??$_Try_emplace@AEBV?$basic_string@DU?$char_traits@D@std@@V?$allocator@D@2@@std@@$$V@?$map@V?$basic_string@DU?$char_traits@D@std@@V?$allocator@D@2@@std@@VEncodedAuthentication@cpr@@U?$less@V?$basic_string@DU?$char_traits@D@std@@V?$allocator@D@2@@std@@@2@V?$allocator@U?$pair@$$CBV?$basic_string@DU?$char_traits@D@std@@V?$allocator@D@2@@std@@VEncodedAuthentication@cpr@@@std@@@2@@std@@AEAA?AU?$pair@PEAU?$_Tree_node@U?$pair@$$CBV?$basic_string@DU?$char_traits@D@std@@V?$allocator@D@2@@std@@VEncodedAuthentication@cpr@@@std@@PEAX@std@@_N@1@AEBV?$basic_string@DU?$char_traits@D@std@@V?$allocator@D@2@@1@@Z
	??$_Try_emplace@V?$basic_string@DU?$char_traits@D@std@@V?$allocator@D@2@@std@@$$V@?$map@V?$basic_string@DU?$char_traits@D@std@@V?$allocator@D@2@@std@@V12@UCaseInsensitiveCompare@cpr@@V?$allocator@U?$pair@$$CBV?$basic_string@DU?$char_traits@D@std@@V?$allocator@D@2@@std@@V12@@std@@@2@@std@@AEAA?AU?$pair@PEAU?$_Tree_node@U?$pair@$$CBV?$basic_string@DU?$char_traits@D@std@@V?$allocator@D@2@@std@@V12@@std@@PEAX@std@@_N@1@$$QEAV?$basic_string@DU?$char_traits@D@std@@V?$allocator@D@2@@1@@Z
	??$_Tuple_get@$0A@$$QEAV?$basic_string@DU?$char_traits@D@std@@V?$allocator@D@2@@std@@@std@@YA$$QEA_P$$QEAV?$tuple@$$QEAV?$basic_string@DU?$char_traits@D@std@@V?$allocator@D@2@@std@@@0@@Z
	??$_Tuple_get@$0A@AEBV?$basic_string@DU?$char_traits@D@std@@V?$allocator@D@2@@std@@@std@@YA$$QEA_P$$QEAV?$tuple@AEBV?$basic_string@DU?$char_traits@D@std@@V?$allocator@D@2@@std@@@0@@Z
	??$_UIntegral_to_buff@D_K@std@@YAPEADPEAD_K@Z
	??$_Unfancy@D@std@@YAPEADPEAD@Z
	??$_Unfancy@UPair@cpr@@@std@@YAPEAUPair@cpr@@PEAU12@@Z
	??$_Unfancy@UParameter@cpr@@@std@@YAPEAUParameter@cpr@@PEAU12@@Z
	??$_Unfancy@UPart@cpr@@@std@@YAPEAUPart@cpr@@PEAU12@@Z
	??$_Unfancy@U_Container_proxy@std@@@std@@YAPEAU_Container_proxy@0@PEAU10@@Z
	??$_Unfancy@Ucurl_forms@@@std@@YAPEAUcurl_forms@@PEAU1@@Z
	??$_Unfancy@V?$basic_string@DU?$char_traits@D@std@@V?$allocator@D@2@@std@@@std@@YAPEAV?$basic_string@DU?$char_traits@D@std@@V?$allocator@D@2@@0@PEAV10@@Z
	??$_Unfancy_maybe_null@$$CBD@std@@YAPEBDPEBD@Z
	??$_Unfancy_maybe_null@UPair@cpr@@@std@@YAPEAUPair@cpr@@PEAU12@@Z
	??$_Unfancy_maybe_null@UParameter@cpr@@@std@@YAPEAUParameter@cpr@@PEAU12@@Z
	??$_Unfancy_maybe_null@UPart@cpr@@@std@@YAPEAUPart@cpr@@PEAU12@@Z
	??$_Unfancy_maybe_null@Ucurl_forms@@@std@@YAPEAUcurl_forms@@PEAU1@@Z
	??$_Unfancy_maybe_null@V?$basic_string@DU?$char_traits@D@std@@V?$allocator@D@2@@std@@@std@@YAPEAV?$basic_string@DU?$char_traits@D@std@@V?$allocator@D@2@@0@PEAV10@@Z
	??$_Uninitialized_copy@PEBUPair@cpr@@PEBU12@V?$allocator@UPair@cpr@@@std@@@std@@YAPEAUPair@cpr@@PEBU12@0PEAU12@AEAV?$allocator@UPair@cpr@@@0@@Z
	??$_Uninitialized_copy@PEBUParameter@cpr@@PEBU12@V?$allocator@UParameter@cpr@@@std@@@std@@YAPEAUParameter@cpr@@PEBU12@0PEAU12@AEAV?$allocator@UParameter@cpr@@@0@@Z
	??$_Uninitialized_copy@PEBUPart@cpr@@PEBU12@V?$allocator@UPart@cpr@@@std@@@std@@YAPEAUPart@cpr@@PEBU12@0PEAU12@AEAV?$allocator@UPart@cpr@@@0@@Z
	??$_Uninitialized_copy_n@PEAUParameter@cpr@@V?$allocator@UParameter@cpr@@@std@@@std@@YAPEAUParameter@cpr@@PEAU12@_K0AEAV?$allocator@UParameter@cpr@@@0@@Z
	??$_Uninitialized_move@PEAUPair@cpr@@V?$allocator@UPair@cpr@@@std@@@std@@YAPEAUPair@cpr@@QEAU12@0PEAU12@AEAV?$allocator@UPair@cpr@@@0@@Z
	??$_Uninitialized_move@PEAUParameter@cpr@@V?$allocator@UParameter@cpr@@@std@@@std@@YAPEAUParameter@cpr@@QEAU12@0PEAU12@AEAV?$allocator@UParameter@cpr@@@0@@Z
	??$_Uninitialized_move@PEAUcurl_forms@@V?$allocator@Ucurl_forms@@@std@@@std@@YAPEAUcurl_forms@@QEAU1@0PEAU1@AEAV?$allocator@Ucurl_forms@@@0@@Z
	??$_Uninitialized_move@PEAV?$basic_string@DU?$char_traits@D@std@@V?$allocator@D@2@@std@@V?$allocator@V?$basic_string@DU?$char_traits@D@std@@V?$allocator@D@2@@std@@@2@@std@@YAPEAV?$basic_string@DU?$char_traits@D@std@@V?$allocator@D@2@@0@QEAV10@0PEAV10@AEAV?$allocator@V?$basic_string@DU?$char_traits@D@std@@V?$allocator@D@2@@std@@@0@@Z
	??$_Uninitialized_value_construct_n@V?$allocator@V?$basic_string@DU?$char_traits@D@std@@V?$allocator@D@2@@std@@@std@@@std@@YAPEAV?$basic_string@DU?$char_traits@D@std@@V?$allocator@D@2@@0@PEAV10@_KAEAV?$allocator@V?$basic_string@DU?$char_traits@D@std@@V?$allocator@D@2@@std@@@0@@Z
	??$addressof@$$CBV?$_String_val@U?$_Simple_types@D@std@@@std@@@std@@YAPEBV?$_String_val@U?$_Simple_types@D@std@@@0@AEBV10@@Z
	??$addressof@$$CBV?$_Tree@V?$_Tmap_traits@V?$basic_string@DU?$char_traits@D@std@@V?$allocator@D@2@@std@@V12@U?$less@V?$basic_string@DU?$char_traits@D@std@@V?$allocator@D@2@@std@@@2@V?$allocator@U?$pair@$$CBV?$basic_string@DU?$char_traits@D@std@@V?$allocator@D@2@@std@@V12@@std@@@2@$0A@@std@@@std@@@std@@YAPEBV?$_Tree@V?$_Tmap_traits@V?$basic_string@DU?$char_traits@D@std@@V?$allocator@D@2@@std@@V12@U?$less@V?$basic_string@DU?$char_traits@D@std@@V?$allocator@D@2@@std@@@2@V?$allocator@U?$pair@$$CBV?$basic_string@DU?$char_traits@D@std@@V?$allocator@D@2@@std@@V12@@std@@@2@$0A@@std@@@0@AEBV10@@Z
	??$addressof@$$CBV?$_Tree@V?$_Tmap_traits@V?$basic_string@DU?$char_traits@D@std@@V?$allocator@D@2@@std@@V12@UCaseInsensitiveCompare@cpr@@V?$allocator@U?$pair@$$CBV?$basic_string@DU?$char_traits@D@std@@V?$allocator@D@2@@std@@V12@@std@@@2@$0A@@std@@@std@@@std@@YAPEBV?$_Tree@V?$_Tmap_traits@V?$basic_string@DU?$char_traits@D@std@@V?$allocator@D@2@@std@@V12@UCaseInsensitiveCompare@cpr@@V?$allocator@U?$pair@$$CBV?$basic_string@DU?$char_traits@D@std@@V?$allocator@D@2@@std@@V12@@std@@@2@$0A@@std@@@0@AEBV10@@Z
	??$addressof@$$CBV?$_Tree@V?$_Tmap_traits@V?$basic_string@DU?$char_traits@D@std@@V?$allocator@D@2@@std@@VEncodedAuthentication@cpr@@U?$less@V?$basic_string@DU?$char_traits@D@std@@V?$allocator@D@2@@std@@@2@V?$allocator@U?$pair@$$CBV?$basic_string@DU?$char_traits@D@std@@V?$allocator@D@2@@std@@VEncodedAuthentication@cpr@@@std@@@2@$0A@@std@@@std@@@std@@YAPEBV?$_Tree@V?$_Tmap_traits@V?$basic_string@DU?$char_traits@D@std@@V?$allocator@D@2@@std@@VEncodedAuthentication@cpr@@U?$less@V?$basic_string@DU?$char_traits@D@std@@V?$allocator@D@2@@std@@@2@V?$allocator@U?$pair@$$CBV?$basic_string@DU?$char_traits@D@std@@V?$allocator@D@2@@std@@VEncodedAuthentication@cpr@@@std@@@2@$0A@@std@@@0@AEBV10@@Z
	??$addressof@$$CBV?$_Tree_val@U?$_Tree_simple_types@U?$pair@$$CBV?$basic_string@DU?$char_traits@D@std@@V?$allocator@D@2@@std@@V12@@std@@@std@@@std@@@std@@YAPEBV?$_Tree_val@U?$_Tree_simple_types@U?$pair@$$CBV?$basic_string@DU?$char_traits@D@std@@V?$allocator@D@2@@std@@V12@@std@@@std@@@0@AEBV10@@Z
	??$addressof@$$CBV?$_Tree_val@U?$_Tree_simple_types@U?$pair@$$CBV?$basic_string@DU?$char_traits@D@std@@V?$allocator@D@2@@std@@VEncodedAuthentication@cpr@@@std@@@std@@@std@@@std@@YAPEBV?$_Tree_val@U?$_Tree_simple_types@U?$pair@$$CBV?$basic_string@DU?$char_traits@D@std@@V?$allocator@D@2@@std@@VEncodedAuthentication@cpr@@@std@@@std@@@0@AEBV10@@Z
	??$addressof@$$CBV?$basic_string@DU?$char_traits@D@std@@V?$allocator@D@2@@std@@@std@@YAPEBV?$basic_string@DU?$char_traits@D@std@@V?$allocator@D@2@@0@AEBV10@@Z
	??$addressof@$$CBV?$vector@UParameter@cpr@@V?$allocator@UParameter@cpr@@@std@@@std@@@std@@YAPEBV?$vector@UParameter@cpr@@V?$allocator@UParameter@cpr@@@std@@@0@AEBV10@@Z
	??$addressof@D@std@@YAPEADAEAD@Z
	??$addressof@PEAD@std@@YAPEAPEADAEAPEAD@Z
	??$addressof@PEAU?$_Tree_node@U?$pair@$$CBV?$basic_string@DU?$char_traits@D@std@@V?$allocator@D@2@@std@@V12@@std@@PEAX@std@@@std@@YAPEAPEAU?$_Tree_node@U?$pair@$$CBV?$basic_string@DU?$char_traits@D@std@@V?$allocator@D@2@@std@@V12@@std@@PEAX@0@AEAPEAU10@@Z
	??$addressof@PEAU?$_Tree_node@U?$pair@$$CBV?$basic_string@DU?$char_traits@D@std@@V?$allocator@D@2@@std@@VEncodedAuthentication@cpr@@@std@@PEAX@std@@@std@@YAPEAPEAU?$_Tree_node@U?$pair@$$CBV?$basic_string@DU?$char_traits@D@std@@V?$allocator@D@2@@std@@VEncodedAuthentication@cpr@@@std@@PEAX@0@AEAPEAU10@@Z
	??$addressof@U?$pair@$$CBV?$basic_string@DU?$char_traits@D@std@@V?$allocator@D@2@@std@@V12@@std@@@std@@YAPEAU?$pair@$$CBV?$basic_string@DU?$char_traits@D@std@@V?$allocator@D@2@@std@@V12@@0@AEAU10@@Z
	??$addressof@U?$pair@$$CBV?$basic_string@DU?$char_traits@D@std@@V?$allocator@D@2@@std@@VEncodedAuthentication@cpr@@@std@@@std@@YAPEAU?$pair@$$CBV?$basic_string@DU?$char_traits@D@std@@V?$allocator@D@2@@std@@VEncodedAuthentication@cpr@@@0@AEAU10@@Z
	??$addressof@UPair@cpr@@@std@@YAPEAUPair@cpr@@AEAU12@@Z
	??$addressof@UParameter@cpr@@@std@@YAPEAUParameter@cpr@@AEAU12@@Z
	??$addressof@U_Container_base12@std@@@std@@YAPEAU_Container_base12@0@AEAU10@@Z
	??$addressof@U_Container_proxy@std@@@std@@YAPEAU_Container_proxy@0@AEAU10@@Z
	??$addressof@Ucurl_forms@@@std@@YAPEAUcurl_forms@@AEAU1@@Z
	??$addressof@V?$_String_val@U?$_Simple_types@D@std@@@std@@@std@@YAPEAV?$_String_val@U?$_Simple_types@D@std@@@0@AEAV10@@Z
	??$addressof@V?$_Tree@V?$_Tmap_traits@V?$basic_string@DU?$char_traits@D@std@@V?$allocator@D@2@@std@@V12@U?$less@V?$basic_string@DU?$char_traits@D@std@@V?$allocator@D@2@@std@@@2@V?$allocator@U?$pair@$$CBV?$basic_string@DU?$char_traits@D@std@@V?$allocator@D@2@@std@@V12@@std@@@2@$0A@@std@@@std@@@std@@YAPEAV?$_Tree@V?$_Tmap_traits@V?$basic_string@DU?$char_traits@D@std@@V?$allocator@D@2@@std@@V12@U?$less@V?$basic_string@DU?$char_traits@D@std@@V?$allocator@D@2@@std@@@2@V?$allocator@U?$pair@$$CBV?$basic_string@DU?$char_traits@D@std@@V?$allocator@D@2@@std@@V12@@std@@@2@$0A@@std@@@0@AEAV10@@Z
	??$addressof@V?$_Tree@V?$_Tmap_traits@V?$basic_string@DU?$char_traits@D@std@@V?$allocator@D@2@@std@@V12@UCaseInsensitiveCompare@cpr@@V?$allocator@U?$pair@$$CBV?$basic_string@DU?$char_traits@D@std@@V?$allocator@D@2@@std@@V12@@std@@@2@$0A@@std@@@std@@@std@@YAPEAV?$_Tree@V?$_Tmap_traits@V?$basic_string@DU?$char_traits@D@std@@V?$allocator@D@2@@std@@V12@UCaseInsensitiveCompare@cpr@@V?$allocator@U?$pair@$$CBV?$basic_string@DU?$char_traits@D@std@@V?$allocator@D@2@@std@@V12@@std@@@2@$0A@@std@@@0@AEAV10@@Z
	??$addressof@V?$_Tree@V?$_Tmap_traits@V?$basic_string@DU?$char_traits@D@std@@V?$allocator@D@2@@std@@VEncodedAuthentication@cpr@@U?$less@V?$basic_string@DU?$char_traits@D@std@@V?$allocator@D@2@@std@@@2@V?$allocator@U?$pair@$$CBV?$basic_string@DU?$char_traits@D@std@@V?$allocator@D@2@@std@@VEncodedAuthentication@cpr@@@std@@@2@$0A@@std@@@std@@@std@@YAPEAV?$_Tree@V?$_Tmap_traits@V?$basic_string@DU?$char_traits@D@std@@V?$allocator@D@2@@std@@VEncodedAuthentication@cpr@@U?$less@V?$basic_string@DU?$char_traits@D@std@@V?$allocator@D@2@@std@@@2@V?$allocator@U?$pair@$$CBV?$basic_string@DU?$char_traits@D@std@@V?$allocator@D@2@@std@@VEncodedAuthentication@cpr@@@std@@@2@$0A@@std@@@0@AEAV10@@Z
	??$addressof@V?$_Tree_val@U?$_Tree_simple_types@U?$pair@$$CBV?$basic_string@DU?$char_traits@D@std@@V?$allocator@D@2@@std@@V12@@std@@@std@@@std@@@std@@YAPEAV?$_Tree_val@U?$_Tree_simple_types@U?$pair@$$CBV?$basic_string@DU?$char_traits@D@std@@V?$allocator@D@2@@std@@V12@@std@@@std@@@0@AEAV10@@Z
	??$addressof@V?$_Tree_val@U?$_Tree_simple_types@U?$pair@$$CBV?$basic_string@DU?$char_traits@D@std@@V?$allocator@D@2@@std@@VEncodedAuthentication@cpr@@@std@@@std@@@std@@@std@@YAPEAV?$_Tree_val@U?$_Tree_simple_types@U?$pair@$$CBV?$basic_string@DU?$char_traits@D@std@@V?$allocator@D@2@@std@@VEncodedAuthentication@cpr@@@std@@@std@@@0@AEAV10@@Z
	??$addressof@V?$basic_string@DU?$char_traits@D@std@@V?$allocator@D@2@@std@@@std@@YAPEAV?$basic_string@DU?$char_traits@D@std@@V?$allocator@D@2@@0@AEAV10@@Z
	??$addressof@V?$basic_stringbuf@DU?$char_traits@D@std@@V?$allocator@D@2@@std@@@std@@YAPEAV?$basic_stringbuf@DU?$char_traits@D@std@@V?$allocator@D@2@@0@AEAV10@@Z
	??$addressof@V?$vector@UPair@cpr@@V?$allocator@UPair@cpr@@@std@@@std@@@std@@YAPEAV?$vector@UPair@cpr@@V?$allocator@UPair@cpr@@@std@@@0@AEAV10@@Z
	??$addressof@V?$vector@UParameter@cpr@@V?$allocator@UParameter@cpr@@@std@@@std@@@std@@YAPEAV?$vector@UParameter@cpr@@V?$allocator@UParameter@cpr@@@std@@@0@AEAV10@@Z
	??$back_inserter@V?$vector@UPair@cpr@@V?$allocator@UPair@cpr@@@std@@@std@@@std@@YA?AV?$back_insert_iterator@V?$vector@UPair@cpr@@V?$allocator@UPair@cpr@@@std@@@std@@@0@AEAV?$vector@UPair@cpr@@V?$allocator@UPair@cpr@@@std@@@0@@Z
	??$back_inserter@V?$vector@UParameter@cpr@@V?$allocator@UParameter@cpr@@@std@@@std@@@std@@YA?AV?$back_insert_iterator@V?$vector@UParameter@cpr@@V?$allocator@UParameter@cpr@@@std@@@std@@@0@AEAV?$vector@UParameter@cpr@@V?$allocator@UParameter@cpr@@@std@@@0@@Z
	??$construct@U?$pair@$$CBV?$basic_string@DU?$char_traits@D@std@@V?$allocator@D@2@@std@@V12@@std@@AEAU12@@?$_Default_allocator_traits@V?$allocator@U?$_Tree_node@U?$pair@$$CBV?$basic_string@DU?$char_traits@D@std@@V?$allocator@D@2@@std@@V12@@std@@PEAX@std@@@std@@@std@@SAXAEAV?$allocator@U?$_Tree_node@U?$pair@$$CBV?$basic_string@DU?$char_traits@D@std@@V?$allocator@D@2@@std@@V12@@std@@PEAX@std@@@1@QEAU?$pair@$$CBV?$basic_string@DU?$char_traits@D@std@@V?$allocator@D@2@@std@@V12@@1@AEAU31@@Z
	??$construct@U?$pair@$$CBV?$basic_string@DU?$char_traits@D@std@@V?$allocator@D@2@@std@@V12@@std@@AEBU12@@?$_Default_allocator_traits@V?$allocator@U?$_Tree_node@U?$pair@$$CBV?$basic_string@DU?$char_traits@D@std@@V?$allocator@D@2@@std@@V12@@std@@PEAX@std@@@std@@@std@@SAXAEAV?$allocator@U?$_Tree_node@U?$pair@$$CBV?$basic_string@DU?$char_traits@D@std@@V?$allocator@D@2@@std@@V12@@std@@PEAX@std@@@1@QEAU?$pair@$$CBV?$basic_string@DU?$char_traits@D@std@@V?$allocator@D@2@@std@@V12@@1@AEBU31@@Z
	??$construct@U?$pair@$$CBV?$basic_string@DU?$char_traits@D@std@@V?$allocator@D@2@@std@@V12@@std@@AEBUpiecewise_construct_t@2@V?$tuple@$$QEAV?$basic_string@DU?$char_traits@D@std@@V?$allocator@D@2@@std@@@2@V?$tuple@$$V@2@@?$_Default_allocator_traits@V?$allocator@U?$_Tree_node@U?$pair@$$CBV?$basic_string@DU?$char_traits@D@std@@V?$allocator@D@2@@std@@V12@@std@@PEAX@std@@@std@@@std@@SAXAEAV?$allocator@U?$_Tree_node@U?$pair@$$CBV?$basic_string@DU?$char_traits@D@std@@V?$allocator@D@2@@std@@V12@@std@@PEAX@std@@@1@QEAU?$pair@$$CBV?$basic_string@DU?$char_traits@D@std@@V?$allocator@D@2@@std@@V12@@1@AEBUpiecewise_construct_t@1@$$QEAV?$tuple@$$QEAV?$basic_string@DU?$char_traits@D@std@@V?$allocator@D@2@@std@@@1@$$QEAV?$tuple@$$V@1@@Z
	??$construct@U?$pair@$$CBV?$basic_string@DU?$char_traits@D@std@@V?$allocator@D@2@@std@@V12@@std@@AEBUpiecewise_construct_t@2@V?$tuple@AEBV?$basic_string@DU?$char_traits@D@std@@V?$allocator@D@2@@std@@@2@V?$tuple@$$V@2@@?$_Default_allocator_traits@V?$allocator@U?$_Tree_node@U?$pair@$$CBV?$basic_string@DU?$char_traits@D@std@@V?$allocator@D@2@@std@@V12@@std@@PEAX@std@@@std@@@std@@SAXAEAV?$allocator@U?$_Tree_node@U?$pair@$$CBV?$basic_string@DU?$char_traits@D@std@@V?$allocator@D@2@@std@@V12@@std@@PEAX@std@@@1@QEAU?$pair@$$CBV?$basic_string@DU?$char_traits@D@std@@V?$allocator@D@2@@std@@V12@@1@AEBUpiecewise_construct_t@1@$$QEAV?$tuple@AEBV?$basic_string@DU?$char_traits@D@std@@V?$allocator@D@2@@std@@@1@$$QEAV?$tuple@$$V@1@@Z
	??$construct@U?$pair@$$CBV?$basic_string@DU?$char_traits@D@std@@V?$allocator@D@2@@std@@VEncodedAuthentication@cpr@@@std@@AEAU12@@?$_Default_allocator_traits@V?$allocator@U?$_Tree_node@U?$pair@$$CBV?$basic_string@DU?$char_traits@D@std@@V?$allocator@D@2@@std@@VEncodedAuthentication@cpr@@@std@@PEAX@std@@@std@@@std@@SAXAEAV?$allocator@U?$_Tree_node@U?$pair@$$CBV?$basic_string@DU?$char_traits@D@std@@V?$allocator@D@2@@std@@VEncodedAuthentication@cpr@@@std@@PEAX@std@@@1@QEAU?$pair@$$CBV?$basic_string@DU?$char_traits@D@std@@V?$allocator@D@2@@std@@VEncodedAuthentication@cpr@@@1@AEAU31@@Z
	??$construct@U?$pair@$$CBV?$basic_string@DU?$char_traits@D@std@@V?$allocator@D@2@@std@@VEncodedAuthentication@cpr@@@std@@AEBUpiecewise_construct_t@2@V?$tuple@AEBV?$basic_string@DU?$char_traits@D@std@@V?$allocator@D@2@@std@@@2@V?$tuple@$$V@2@@?$_Default_allocator_traits@V?$allocator@U?$_Tree_node@U?$pair@$$CBV?$basic_string@DU?$char_traits@D@std@@V?$allocator@D@2@@std@@VEncodedAuthentication@cpr@@@std@@PEAX@std@@@std@@@std@@SAXAEAV?$allocator@U?$_Tree_node@U?$pair@$$CBV?$basic_string@DU?$char_traits@D@std@@V?$allocator@D@2@@std@@VEncodedAuthentication@cpr@@@std@@PEAX@std@@@1@QEAU?$pair@$$CBV?$basic_string@DU?$char_traits@D@std@@V?$allocator@D@2@@std@@VEncodedAuthentication@cpr@@@1@AEBUpiecewise_construct_t@1@$$QEAV?$tuple@AEBV?$basic_string@DU?$char_traits@D@std@@V?$allocator@D@2@@std@@@1@$$QEAV?$tuple@$$V@1@@Z
	??$construct@UPair@cpr@@AEBU12@@?$_Default_allocator_traits@V?$allocator@UPair@cpr@@@std@@@std@@SAXAEAV?$allocator@UPair@cpr@@@1@QEAUPair@cpr@@AEBU34@@Z
	??$construct@UPair@cpr@@U12@@?$_Default_allocator_traits@V?$allocator@UPair@cpr@@@std@@@std@@SAXAEAV?$allocator@UPair@cpr@@@1@QEAUPair@cpr@@$$QEAU34@@Z
	??$construct@UParameter@cpr@@AEAU12@@?$_Default_allocator_traits@V?$allocator@UParameter@cpr@@@std@@@std@@SAXAEAV?$allocator@UParameter@cpr@@@1@QEAUParameter@cpr@@AEAU34@@Z
	??$construct@UParameter@cpr@@AEBU12@@?$_Default_allocator_traits@V?$allocator@UParameter@cpr@@@std@@@std@@SAXAEAV?$allocator@UParameter@cpr@@@1@QEAUParameter@cpr@@AEBU34@@Z
	??$construct@UParameter@cpr@@U12@@?$_Default_allocator_traits@V?$allocator@UParameter@cpr@@@std@@@std@@SAXAEAV?$allocator@UParameter@cpr@@@1@QEAUParameter@cpr@@$$QEAU34@@Z
	??$construct@UPart@cpr@@AEBU12@@?$_Default_allocator_traits@V?$allocator@UPart@cpr@@@std@@@std@@SAXAEAV?$allocator@UPart@cpr@@@1@QEAUPart@cpr@@AEBU34@@Z
	??$construct@Ucurl_forms@@U1@@?$_Default_allocator_traits@V?$allocator@Ucurl_forms@@@std@@@std@@SAXAEAV?$allocator@Ucurl_forms@@@1@QEAUcurl_forms@@$$QEAU3@@Z
	??$construct@V?$basic_string@DU?$char_traits@D@std@@V?$allocator@D@2@@std@@$$V@?$_Default_allocator_traits@V?$allocator@V?$basic_string@DU?$char_traits@D@std@@V?$allocator@D@2@@std@@@std@@@std@@SAXAEAV?$allocator@V?$basic_string@DU?$char_traits@D@std@@V?$allocator@D@2@@std@@@1@QEAV?$basic_string@DU?$char_traits@D@std@@V?$allocator@D@2@@1@@Z
	??$construct@V?$basic_string@DU?$char_traits@D@std@@V?$allocator@D@2@@std@@AEBV12@@?$_Default_allocator_traits@V?$allocator@V?$basic_string@DU?$char_traits@D@std@@V?$allocator@D@2@@std@@@std@@@std@@SAXAEAV?$allocator@V?$basic_string@DU?$char_traits@D@std@@V?$allocator@D@2@@std@@@1@QEAV?$basic_string@DU?$char_traits@D@std@@V?$allocator@D@2@@1@AEBV31@@Z
	??$construct@V?$basic_string@DU?$char_traits@D@std@@V?$allocator@D@2@@std@@V12@@?$_Default_allocator_traits@V?$allocator@V?$basic_string@DU?$char_traits@D@std@@V?$allocator@D@2@@std@@@std@@@std@@SAXAEAV?$allocator@V?$basic_string@DU?$char_traits@D@std@@V?$allocator@D@2@@std@@@1@QEAV?$basic_string@DU?$char_traits@D@std@@V?$allocator@D@2@@1@$$QEAV31@@Z
	??$destroy@U?$pair@$$CBV?$basic_string@DU?$char_traits@D@std@@V?$allocator@D@2@@std@@V12@@std@@@?$_Default_allocator_traits@V?$allocator@U?$_Tree_node@U?$pair@$$CBV?$basic_string@DU?$char_traits@D@std@@V?$allocator@D@2@@std@@V12@@std@@PEAX@std@@@std@@@std@@SAXAEAV?$allocator@U?$_Tree_node@U?$pair@$$CBV?$basic_string@DU?$char_traits@D@std@@V?$allocator@D@2@@std@@V12@@std@@PEAX@std@@@1@QEAU?$pair@$$CBV?$basic_string@DU?$char_traits@D@std@@V?$allocator@D@2@@std@@V12@@1@@Z
	??$destroy@U?$pair@$$CBV?$basic_string@DU?$char_traits@D@std@@V?$allocator@D@2@@std@@VEncodedAuthentication@cpr@@@std@@@?$_Default_allocator_traits@V?$allocator@U?$_Tree_node@U?$pair@$$CBV?$basic_string@DU?$char_traits@D@std@@V?$allocator@D@2@@std@@VEncodedAuthentication@cpr@@@std@@PEAX@std@@@std@@@std@@SAXAEAV?$allocator@U?$_Tree_node@U?$pair@$$CBV?$basic_string@DU?$char_traits@D@std@@V?$allocator@D@2@@std@@VEncodedAuthentication@cpr@@@std@@PEAX@std@@@1@QEAU?$pair@$$CBV?$basic_string@DU?$char_traits@D@std@@V?$allocator@D@2@@std@@VEncodedAuthentication@cpr@@@1@@Z
	??$destroy@UPair@cpr@@@?$_Default_allocator_traits@V?$allocator@UPair@cpr@@@std@@@std@@SAXAEAV?$allocator@UPair@cpr@@@1@QEAUPair@cpr@@@Z
	??$destroy@UParameter@cpr@@@?$_Default_allocator_traits@V?$allocator@UParameter@cpr@@@std@@@std@@SAXAEAV?$allocator@UParameter@cpr@@@1@QEAUParameter@cpr@@@Z
	??$destroy@UPart@cpr@@@?$_Default_allocator_traits@V?$allocator@UPart@cpr@@@std@@@std@@SAXAEAV?$allocator@UPart@cpr@@@1@QEAUPart@cpr@@@Z
	??$destroy@V?$basic_string@DU?$char_traits@D@std@@V?$allocator@D@2@@std@@@?$_Default_allocator_traits@V?$allocator@V?$basic_string@DU?$char_traits@D@std@@V?$allocator@D@2@@std@@@std@@@std@@SAXAEAV?$allocator@V?$basic_string@DU?$char_traits@D@std@@V?$allocator@D@2@@std@@@1@QEAV?$basic_string@DU?$char_traits@D@std@@V?$allocator@D@2@@1@@Z
	??$end@D$0BF@@std@@YAPEADAEAY0BF@D@Z
	??$exchange@PEAU?$_Tree_node@U?$pair@$$CBV?$basic_string@DU?$char_traits@D@std@@V?$allocator@D@2@@std@@V12@@std@@PEAX@std@@$$T@std@@YAPEAU?$_Tree_node@U?$pair@$$CBV?$basic_string@DU?$char_traits@D@std@@V?$allocator@D@2@@std@@V12@@std@@PEAX@0@AEAPEAU10@$$QEA$$T@Z
	??$exchange@PEAU?$_Tree_node@U?$pair@$$CBV?$basic_string@DU?$char_traits@D@std@@V?$allocator@D@2@@std@@V12@@std@@PEAX@std@@AEAPEAU12@@std@@YAPEAU?$_Tree_node@U?$pair@$$CBV?$basic_string@DU?$char_traits@D@std@@V?$allocator@D@2@@std@@V12@@std@@PEAX@0@AEAPEAU10@0@Z
	??$exchange@PEAU?$_Tree_node@U?$pair@$$CBV?$basic_string@DU?$char_traits@D@std@@V?$allocator@D@2@@std@@VEncodedAuthentication@cpr@@@std@@PEAX@std@@$$T@std@@YAPEAU?$_Tree_node@U?$pair@$$CBV?$basic_string@DU?$char_traits@D@std@@V?$allocator@D@2@@std@@VEncodedAuthentication@cpr@@@std@@PEAX@0@AEAPEAU10@$$QEA$$T@Z
	??$exchange@PEAU?$_Tree_node@U?$pair@$$CBV?$basic_string@DU?$char_traits@D@std@@V?$allocator@D@2@@std@@VEncodedAuthentication@cpr@@@std@@PEAX@std@@AEAPEAU12@@std@@YAPEAU?$_Tree_node@U?$pair@$$CBV?$basic_string@DU?$char_traits@D@std@@V?$allocator@D@2@@std@@VEncodedAuthentication@cpr@@@std@@PEAX@0@AEAPEAU10@0@Z
	??$exchange@PEAU_Container_proxy@std@@$$T@std@@YAPEAU_Container_proxy@0@AEAPEAU10@$$QEA$$T@Z
	??$exchange@PEAU_Iterator_base12@std@@$$T@std@@YAPEAU_Iterator_base12@0@AEAPEAU10@$$QEA$$T@Z
	??$exchange@PEAV?$basic_string@DU?$char_traits@D@std@@V?$allocator@D@2@@std@@$$T@std@@YAPEAV?$basic_string@DU?$char_traits@D@std@@V?$allocator@D@2@@0@AEAPEAV10@$$QEA$$T@Z
	??$exchange@PEAVImpl@Session@cpr@@$$T@std@@YAPEAVImpl@Session@cpr@@AEAPEAV123@$$QEA$$T@Z
	??$exchange@PEAVImpl@Session@cpr@@AEAPEAV123@@std@@YAPEAVImpl@Session@cpr@@AEAPEAV123@0@Z
	??$forward@AEAPEAD@std@@YAAEAPEADAEAPEAD@Z
	??$forward@AEAPEAU?$_Tree_node@U?$pair@$$CBV?$basic_string@DU?$char_traits@D@std@@V?$allocator@D@2@@std@@V12@@std@@PEAX@std@@@std@@YAAEAPEAU?$_Tree_node@U?$pair@$$CBV?$basic_string@DU?$char_traits@D@std@@V?$allocator@D@2@@std@@V12@@std@@PEAX@0@AEAPEAU10@@Z
	??$forward@AEAPEAU?$_Tree_node@U?$pair@$$CBV?$basic_string@DU?$char_traits@D@std@@V?$allocator@D@2@@std@@VEncodedAuthentication@cpr@@@std@@PEAX@std@@@std@@YAAEAPEAU?$_Tree_node@U?$pair@$$CBV?$basic_string@DU?$char_traits@D@std@@V?$allocator@D@2@@std@@VEncodedAuthentication@cpr@@@std@@PEAX@0@AEAPEAU10@@Z
	??$forward@AEAPEAVImpl@Session@cpr@@@std@@YAAEAPEAVImpl@Session@cpr@@AEAPEAV123@@Z
	??$forward@AEAU?$pair@$$CBV?$basic_string@DU?$char_traits@D@std@@V?$allocator@D@2@@std@@V12@@std@@@std@@YAAEAU?$pair@$$CBV?$basic_string@DU?$char_traits@D@std@@V?$allocator@D@2@@std@@V12@@0@AEAU10@@Z
	??$forward@AEAU?$pair@$$CBV?$basic_string@DU?$char_traits@D@std@@V?$allocator@D@2@@std@@VEncodedAuthentication@cpr@@@std@@@std@@YAAEAU?$pair@$$CBV?$basic_string@DU?$char_traits@D@std@@V?$allocator@D@2@@std@@VEncodedAuthentication@cpr@@@0@AEAU10@@Z
	??$forward@AEAUParameter@cpr@@@std@@YAAEAUParameter@cpr@@AEAU12@@Z
	??$forward@AEAV?$allocator@D@std@@@std@@YAAEAV?$allocator@D@0@AEAV10@@Z
	??$forward@AEAV?$back_insert_iterator@V?$vector@UPair@cpr@@V?$allocator@UPair@cpr@@@std@@@std@@@std@@@std@@YAAEAV?$back_insert_iterator@V?$vector@UPair@cpr@@V?$allocator@UPair@cpr@@@std@@@std@@@0@AEAV10@@Z
	??$forward@AEAV?$back_insert_iterator@V?$vector@UParameter@cpr@@V?$allocator@UParameter@cpr@@@std@@@std@@@std@@@std@@YAAEAV?$back_insert_iterator@V?$vector@UParameter@cpr@@V?$allocator@UParameter@cpr@@@std@@@std@@@0@AEAV10@@Z
	??$forward@AEA_K@std@@YAAEA_KAEA_K@Z
	??$forward@AEBQEAD@std@@YAAEBQEADAEBQEAD@Z
	??$forward@AEBQEAU?$_Tree_node@U?$pair@$$CBV?$basic_string@DU?$char_traits@D@std@@V?$allocator@D@2@@std@@V12@@std@@PEAX@std@@@std@@YAAEBQEAU?$_Tree_node@U?$pair@$$CBV?$basic_string@DU?$char_traits@D@std@@V?$allocator@D@2@@std@@V12@@std@@PEAX@0@AEBQEAU10@@Z
	??$forward@AEBQEAU?$_Tree_node@U?$pair@$$CBV?$basic_string@DU?$char_traits@D@std@@V?$allocator@D@2@@std@@VEncodedAuthentication@cpr@@@std@@PEAX@std@@@std@@YAAEBQEAU?$_Tree_node@U?$pair@$$CBV?$basic_string@DU?$char_traits@D@std@@V?$allocator@D@2@@std@@VEncodedAuthentication@cpr@@@std@@PEAX@0@AEBQEAU10@@Z
	??$forward@AEBU?$less@V?$basic_string@DU?$char_traits@D@std@@V?$allocator@D@2@@std@@@std@@@std@@YAAEBU?$less@V?$basic_string@DU?$char_traits@D@std@@V?$allocator@D@2@@std@@@0@AEBU10@@Z
	??$forward@AEBU?$pair@$$CBV?$basic_string@DU?$char_traits@D@std@@V?$allocator@D@2@@std@@V12@@std@@@std@@YAAEBU?$pair@$$CBV?$basic_string@DU?$char_traits@D@std@@V?$allocator@D@2@@std@@V12@@0@AEBU10@@Z
	??$forward@AEBUCaseInsensitiveCompare@cpr@@@std@@YAAEBUCaseInsensitiveCompare@cpr@@AEBU12@@Z
	??$forward@AEBUPair@cpr@@@std@@YAAEBUPair@cpr@@AEBU12@@Z
	??$forward@AEBUParameter@cpr@@@std@@YAAEBUParameter@cpr@@AEBU12@@Z
	??$forward@AEBUPart@cpr@@@std@@YAAEBUPart@cpr@@AEBU12@@Z
	??$forward@AEBUpiecewise_construct_t@std@@@std@@YAAEBUpiecewise_construct_t@0@AEBU10@@Z
	??$forward@AEBV?$allocator@D@std@@@std@@YAAEBV?$allocator@D@0@AEBV10@@Z
	??$forward@AEBV?$allocator@UPair@cpr@@@std@@@std@@YAAEBV?$allocator@UPair@cpr@@@0@AEBV10@@Z
	??$forward@AEBV?$allocator@UParameter@cpr@@@std@@@std@@YAAEBV?$allocator@UParameter@cpr@@@0@AEBV10@@Z
	??$forward@AEBV?$allocator@UPart@cpr@@@std@@@std@@YAAEBV?$allocator@UPart@cpr@@@0@AEBV10@@Z
	??$forward@AEBV?$basic_string@DU?$char_traits@D@std@@V?$allocator@D@2@@std@@@std@@YAAEBV?$basic_string@DU?$char_traits@D@std@@V?$allocator@D@2@@0@AEBV10@@Z
	??$forward@PEAD@std@@YA$$QEAPEADAEAPEAD@Z
	??$forward@PEAU?$_Tree_node@U?$pair@$$CBV?$basic_string@DU?$char_traits@D@std@@V?$allocator@D@2@@std@@V12@@std@@PEAX@std@@@std@@YA$$QEAPEAU?$_Tree_node@U?$pair@$$CBV?$basic_string@DU?$char_traits@D@std@@V?$allocator@D@2@@std@@V12@@std@@PEAX@0@AEAPEAU10@@Z
	??$forward@PEAU?$_Tree_node@U?$pair@$$CBV?$basic_string@DU?$char_traits@D@std@@V?$allocator@D@2@@std@@VEncodedAuthentication@cpr@@@std@@PEAX@std@@@std@@YA$$QEAPEAU?$_Tree_node@U?$pair@$$CBV?$basic_string@DU?$char_traits@D@std@@V?$allocator@D@2@@std@@VEncodedAuthentication@cpr@@@std@@PEAX@0@AEAPEAU10@@Z
	??$forward@PEAU_Container_base12@std@@@std@@YA$$QEAPEAU_Container_base12@0@AEAPEAU10@@Z
	??$forward@PEAV?$basic_string@DU?$char_traits@D@std@@V?$allocator@D@2@@std@@@std@@YA$$QEAPEAV?$basic_string@DU?$char_traits@D@std@@V?$allocator@D@2@@0@AEAPEAV10@@Z
	??$forward@PEAVImpl@Session@cpr@@@std@@YA$$QEAPEAVImpl@Session@cpr@@AEAPEAV123@@Z
	??$forward@PEBUPair@cpr@@@std@@YA$$QEAPEBUPair@cpr@@AEAPEBU12@@Z
	??$forward@PEBUParameter@cpr@@@std@@YA$$QEAPEBUParameter@cpr@@AEAPEBU12@@Z
	??$forward@PEBUPart@cpr@@@std@@YA$$QEAPEBUPart@cpr@@AEAPEBU12@@Z
	??$forward@U?$default_delete@VImpl@Session@cpr@@@std@@@std@@YA$$QEAU?$default_delete@VImpl@Session@cpr@@@0@AEAU10@@Z
	??$forward@U?$less@V?$basic_string@DU?$char_traits@D@std@@V?$allocator@D@2@@std@@@std@@@std@@YA$$QEAU?$less@V?$basic_string@DU?$char_traits@D@std@@V?$allocator@D@2@@std@@@0@AEAU10@@Z
	??$forward@UCaseInsensitiveCompare@cpr@@@std@@YA$$QEAUCaseInsensitiveCompare@cpr@@AEAU12@@Z
	??$forward@UPair@cpr@@@std@@YA$$QEAUPair@cpr@@AEAU12@@Z
	??$forward@UParameter@cpr@@@std@@YA$$QEAUParameter@cpr@@AEAU12@@Z
	??$forward@U_One_then_variadic_args_t@std@@@std@@YA$$QEAU_One_then_variadic_args_t@0@AEAU10@@Z
	??$forward@U_Zero_then_variadic_args_t@std@@@std@@YA$$QEAU_Zero_then_variadic_args_t@0@AEAU10@@Z
	??$forward@Ucurl_forms@@@std@@YA$$QEAUcurl_forms@@AEAU1@@Z
	??$forward@V?$allocator@D@std@@@std@@YA$$QEAV?$allocator@D@0@AEAV10@@Z
	??$forward@V?$allocator@U?$_Tree_node@U?$pair@$$CBV?$basic_string@DU?$char_traits@D@std@@V?$allocator@D@2@@std@@V12@@std@@PEAX@std@@@std@@@std@@YA$$QEAV?$allocator@U?$_Tree_node@U?$pair@$$CBV?$basic_string@DU?$char_traits@D@std@@V?$allocator@D@2@@std@@V12@@std@@PEAX@std@@@0@AEAV10@@Z
	??$forward@V?$allocator@V?$basic_string@DU?$char_traits@D@std@@V?$allocator@D@2@@std@@@std@@@std@@YA$$QEAV?$allocator@V?$basic_string@DU?$char_traits@D@std@@V?$allocator@D@2@@std@@@0@AEAV10@@Z
	??$forward@V?$basic_string@DU?$char_traits@D@std@@V?$allocator@D@2@@std@@@std@@YA$$QEAV?$basic_string@DU?$char_traits@D@std@@V?$allocator@D@2@@0@AEAV10@@Z
	??$forward@V?$tuple@$$QEAV?$basic_string@DU?$char_traits@D@std@@V?$allocator@D@2@@std@@@std@@@std@@YA$$QEAV?$tuple@$$QEAV?$basic_string@DU?$char_traits@D@std@@V?$allocator@D@2@@std@@@0@AEAV10@@Z
	??$forward@V?$tuple@$$V@std@@@std@@YA$$QEAV?$tuple@$$V@0@AEAV10@@Z
	??$forward@V?$tuple@AEBV?$basic_string@DU?$char_traits@D@std@@V?$allocator@D@2@@std@@@std@@@std@@YA$$QEAV?$tuple@AEBV?$basic_string@DU?$char_traits@D@std@@V?$allocator@D@2@@std@@@0@AEAV10@@Z
	??$forward@W4InfoType@DebugCallback@cpr@@@std@@YA$$QEAW4InfoType@DebugCallback@cpr@@AEAW4123@@Z
	??$forward@_J@std@@YA$$QEA_JAEA_J@Z
	??$forward@_N@std@@YA$$QEA_NAEA_N@Z
	??$forward_as_tuple@$$V@std@@YA?AV?$tuple@$$V@0@XZ
	??$forward_as_tuple@AEBV?$basic_string@DU?$char_traits@D@std@@V?$allocator@D@2@@std@@@std@@YA?AV?$tuple@AEBV?$basic_string@DU?$char_traits@D@std@@V?$allocator@D@2@@std@@@0@AEBV?$basic_string@DU?$char_traits@D@std@@V?$allocator@D@2@@0@@Z
	??$forward_as_tuple@V?$basic_string@DU?$char_traits@D@std@@V?$allocator@D@2@@std@@@std@@YA?AV?$tuple@$$QEAV?$basic_string@DU?$char_traits@D@std@@V?$allocator@D@2@@std@@@0@$$QEAV?$basic_string@DU?$char_traits@D@std@@V?$allocator@D@2@@0@@Z
	??$getline@DU?$char_traits@D@std@@V?$allocator@D@2@@std@@YAAEAV?$basic_istream@DU?$char_traits@D@std@@@0@$$QEAV10@AEAV?$basic_string@DU?$char_traits@D@std@@V?$allocator@D@2@@0@D@Z
	??$getline@DU?$char_traits@D@std@@V?$allocator@D@2@@std@@YAAEAV?$basic_istream@DU?$char_traits@D@std@@@0@AEAV10@AEAV?$basic_string@DU?$char_traits@D@std@@V?$allocator@D@2@@0@D@Z
	??$max@PEAD@std@@YAAEBQEADAEBQEAD0@Z
	??$max@_K@std@@YAAEB_KAEB_K0@Z
	??$min@_K@std@@YAAEB_KAEB_K0@Z
	??$move@AEAPEAU?$_Tree_node@U?$pair@$$CBV?$basic_string@DU?$char_traits@D@std@@V?$allocator@D@2@@std@@V12@@std@@PEAX@std@@@std@@YA$$QEAPEAU?$_Tree_node@U?$pair@$$CBV?$basic_string@DU?$char_traits@D@std@@V?$allocator@D@2@@std@@V12@@std@@PEAX@0@AEAPEAU10@@Z
	??$move@AEAPEAU?$_Tree_node@U?$pair@$$CBV?$basic_string@DU?$char_traits@D@std@@V?$allocator@D@2@@std@@VEncodedAuthentication@cpr@@@std@@PEAX@std@@@std@@YA$$QEAPEAU?$_Tree_node@U?$pair@$$CBV?$basic_string@DU?$char_traits@D@std@@V?$allocator@D@2@@std@@VEncodedAuthentication@cpr@@@std@@PEAX@0@AEAPEAU10@@Z
	??$move@AEAPEAUParameter@cpr@@@std@@YA$$QEAPEAUParameter@cpr@@AEAPEAU12@@Z
	??$move@AEAPEBUPair@cpr@@@std@@YA$$QEAPEBUPair@cpr@@AEAPEBU12@@Z
	??$move@AEAPEBUParameter@cpr@@@std@@YA$$QEAPEBUParameter@cpr@@AEAPEBU12@@Z
	??$move@AEAPEBUPart@cpr@@@std@@YA$$QEAPEBUPart@cpr@@AEAPEBU12@@Z
	??$move@AEAUPair@cpr@@@std@@YA$$QEAUPair@cpr@@AEAU12@@Z
	??$move@AEAUParameter@cpr@@@std@@YA$$QEAUParameter@cpr@@AEAU12@@Z
	??$move@AEAUcurl_forms@@@std@@YA$$QEAUcurl_forms@@AEAU1@@Z
	??$move@AEAV?$_Func_class@XW4InfoType@DebugCallback@cpr@@V?$basic_string@DU?$char_traits@D@std@@V?$allocator@D@2@@std@@_J@std@@@std@@YA$$QEAV?$_Func_class@XW4InfoType@DebugCallback@cpr@@V?$basic_string@DU?$char_traits@D@std@@V?$allocator@D@2@@std@@_J@0@AEAV10@@Z
	??$move@AEAV?$_Func_class@_NPEADAEA_K_J@std@@@std@@YA$$QEAV?$_Func_class@_NPEADAEA_K_J@0@AEAV10@@Z
	??$move@AEAV?$_Func_class@_NV?$basic_string@DU?$char_traits@D@std@@V?$allocator@D@2@@std@@_J@std@@@std@@YA$$QEAV?$_Func_class@_NV?$basic_string@DU?$char_traits@D@std@@V?$allocator@D@2@@std@@_J@0@AEAV10@@Z
	??$move@AEAV?$_Func_class@_N_J_J_J_J_J@std@@@std@@YA$$QEAV?$_Func_class@_N_J_J_J_J_J@0@AEAV10@@Z
	??$move@AEAV?$allocator@D@std@@@std@@YA$$QEAV?$allocator@D@0@AEAV10@@Z
	??$move@AEAV?$allocator@U?$_Tree_node@U?$pair@$$CBV?$basic_string@DU?$char_traits@D@std@@V?$allocator@D@2@@std@@V12@@std@@PEAX@std@@@std@@@std@@YA$$QEAV?$allocator@U?$_Tree_node@U?$pair@$$CBV?$basic_string@DU?$char_traits@D@std@@V?$allocator@D@2@@std@@V12@@std@@PEAX@std@@@0@AEAV10@@Z
	??$move@AEAV?$allocator@U?$_Tree_node@U?$pair@$$CBV?$basic_string@DU?$char_traits@D@std@@V?$allocator@D@2@@std@@VEncodedAuthentication@cpr@@@std@@PEAX@std@@@std@@@std@@YA$$QEAV?$allocator@U?$_Tree_node@U?$pair@$$CBV?$basic_string@DU?$char_traits@D@std@@V?$allocator@D@2@@std@@VEncodedAuthentication@cpr@@@std@@PEAX@std@@@0@AEAV10@@Z
	??$move@AEAV?$allocator@UParameter@cpr@@@std@@@std@@YA$$QEAV?$allocator@UParameter@cpr@@@0@AEAV10@@Z
	??$move@AEAV?$allocator@V?$basic_string@DU?$char_traits@D@std@@V?$allocator@D@2@@std@@@std@@@std@@YA$$QEAV?$allocator@V?$basic_string@DU?$char_traits@D@std@@V?$allocator@D@2@@std@@@0@AEAV10@@Z
	??$move@AEAV?$basic_istream@DU?$char_traits@D@std@@@std@@@std@@YA$$QEAV?$basic_istream@DU?$char_traits@D@std@@@0@AEAV10@@Z
	??$move@AEAV?$basic_string@DU?$char_traits@D@std@@V?$allocator@D@2@@std@@@std@@YA$$QEAV?$basic_string@DU?$char_traits@D@std@@V?$allocator@D@2@@0@AEAV10@@Z
	??$move@AEAV?$map@V?$basic_string@DU?$char_traits@D@std@@V?$allocator@D@2@@std@@V12@U?$less@V?$basic_string@DU?$char_traits@D@std@@V?$allocator@D@2@@std@@@2@V?$allocator@U?$pair@$$CBV?$basic_string@DU?$char_traits@D@std@@V?$allocator@D@2@@std@@V12@@std@@@2@@std@@@std@@YA$$QEAV?$map@V?$basic_string@DU?$char_traits@D@std@@V?$allocator@D@2@@std@@V12@U?$less@V?$basic_string@DU?$char_traits@D@std@@V?$allocator@D@2@@std@@@2@V?$allocator@U?$pair@$$CBV?$basic_string@DU?$char_traits@D@std@@V?$allocator@D@2@@std@@V12@@std@@@2@@0@AEAV10@@Z
	??$move@AEAV?$map@V?$basic_string@DU?$char_traits@D@std@@V?$allocator@D@2@@std@@V12@UCaseInsensitiveCompare@cpr@@V?$allocator@U?$pair@$$CBV?$basic_string@DU?$char_traits@D@std@@V?$allocator@D@2@@std@@V12@@std@@@2@@std@@@std@@YA$$QEAV?$map@V?$basic_string@DU?$char_traits@D@std@@V?$allocator@D@2@@std@@V12@UCaseInsensitiveCompare@cpr@@V?$allocator@U?$pair@$$CBV?$basic_string@DU?$char_traits@D@std@@V?$allocator@D@2@@std@@V12@@std@@@2@@0@AEAV10@@Z
	??$move@AEAV?$map@V?$basic_string@DU?$char_traits@D@std@@V?$allocator@D@2@@std@@VEncodedAuthentication@cpr@@U?$less@V?$basic_string@DU?$char_traits@D@std@@V?$allocator@D@2@@std@@@2@V?$allocator@U?$pair@$$CBV?$basic_string@DU?$char_traits@D@std@@V?$allocator@D@2@@std@@VEncodedAuthentication@cpr@@@std@@@2@@std@@@std@@YA$$QEAV?$map@V?$basic_string@DU?$char_traits@D@std@@V?$allocator@D@2@@std@@VEncodedAuthentication@cpr@@U?$less@V?$basic_string@DU?$char_traits@D@std@@V?$allocator@D@2@@std@@@2@V?$allocator@U?$pair@$$CBV?$basic_string@DU?$char_traits@D@std@@V?$allocator@D@2@@std@@VEncodedAuthentication@cpr@@@std@@@2@@0@AEAV10@@Z
	??$move@AEAV?$shared_ptr@UCurlHolder@cpr@@@std@@@std@@YA$$QEAV?$shared_ptr@UCurlHolder@cpr@@@0@AEAV10@@Z
	??$move@AEAV?$tuple@$$QEAV?$basic_string@DU?$char_traits@D@std@@V?$allocator@D@2@@std@@@std@@@std@@YA$$QEAV?$tuple@$$QEAV?$basic_string@DU?$char_traits@D@std@@V?$allocator@D@2@@std@@@0@AEAV10@@Z
	??$move@AEAV?$tuple@AEBV?$basic_string@DU?$char_traits@D@std@@V?$allocator@D@2@@std@@@std@@@std@@YA$$QEAV?$tuple@AEBV?$basic_string@DU?$char_traits@D@std@@V?$allocator@D@2@@std@@@0@AEAV10@@Z
	??$move@AEAVBody@cpr@@@std@@YA$$QEAVBody@cpr@@AEAV12@@Z
	??$move@AEAVCookies@cpr@@@std@@YA$$QEAVCookies@cpr@@AEAV12@@Z
	??$move@AEAVError@cpr@@@std@@YA$$QEAVError@cpr@@AEAV12@@Z
	??$move@AEAVMultipart@cpr@@@std@@YA$$QEAVMultipart@cpr@@AEAV12@@Z
	??$move@AEAVParameters@cpr@@@std@@YA$$QEAVParameters@cpr@@AEAV12@@Z
	??$move@AEAVPayload@cpr@@@std@@YA$$QEAVPayload@cpr@@AEAV12@@Z
	??$move@AEAVProxies@cpr@@@std@@YA$$QEAVProxies@cpr@@AEAV12@@Z
	??$move@AEAVProxyAuthentication@cpr@@@std@@YA$$QEAVProxyAuthentication@cpr@@AEAV12@@Z
	??$move@AEA_K@std@@YA$$QEA_KAEA_K@Z
	??$move@AEBUPair@cpr@@@std@@YA$$QEBUPair@cpr@@AEBU12@@Z
	??$move@AEBUParameter@cpr@@@std@@YA$$QEBUParameter@cpr@@AEBU12@@Z
	??$swap@PEAU?$_Tree_node@U?$pair@$$CBV?$basic_string@DU?$char_traits@D@std@@V?$allocator@D@2@@std@@V12@@std@@PEAX@std@@$0A@@std@@YAXAEAPEAU?$_Tree_node@U?$pair@$$CBV?$basic_string@DU?$char_traits@D@std@@V?$allocator@D@2@@std@@V12@@std@@PEAX@0@0@Z
	??$swap@PEAU?$_Tree_node@U?$pair@$$CBV?$basic_string@DU?$char_traits@D@std@@V?$allocator@D@2@@std@@VEncodedAuthentication@cpr@@@std@@PEAX@std@@$0A@@std@@YAXAEAPEAU?$_Tree_node@U?$pair@$$CBV?$basic_string@DU?$char_traits@D@std@@V?$allocator@D@2@@std@@VEncodedAuthentication@cpr@@@std@@PEAX@0@0@Z
	??$swap@_K$0A@@std@@YAXAEA_K0@Z
	??$transform@PEBUPair@cpr@@V?$back_insert_iterator@V?$vector@UPair@cpr@@V?$allocator@UPair@cpr@@@std@@@std@@@std@@V<lambda_4208477ec92b050ac68c36e087bc7382>@@@std@@YA?AV?$back_insert_iterator@V?$vector@UPair@cpr@@V?$allocator@UPair@cpr@@@std@@@std@@@0@QEBUPair@cpr@@0V10@V<lambda_4208477ec92b050ac68c36e087bc7382>@@@Z
	??$transform@PEBUParameter@cpr@@V?$back_insert_iterator@V?$vector@UParameter@cpr@@V?$allocator@UParameter@cpr@@@std@@@std@@@std@@V<lambda_8fe359263d7c8380db28e128f5237e27>@@@std@@YA?AV?$back_insert_iterator@V?$vector@UParameter@cpr@@V?$allocator@UParameter@cpr@@@std@@@std@@@0@QEBUParameter@cpr@@0V10@V<lambda_8fe359263d7c8380db28e128f5237e27>@@@Z
	??0?$CurlContainer@UPair@cpr@@@cpr@@QEAA@AEBV?$initializer_list@UPair@cpr@@@std@@@Z
	??0?$CurlContainer@UParameter@cpr@@@cpr@@QEAA@AEBV?$initializer_list@UParameter@cpr@@@std@@@Z
	??0?$CurlContainer@UParameter@cpr@@@cpr@@QEAA@XZ
	??0?$StringHolder@VUrl@cpr@@@cpr@@QEAA@$$QEAV?$basic_string@DU?$char_traits@D@std@@V?$allocator@D@2@@std@@@Z
	??0?$StringHolder@VUrl@cpr@@@cpr@@QEAA@PEBD@Z
	??0?$StringHolder@VUrl@cpr@@@cpr@@QEAA@XZ
	??0?$_Alloc_construct_ptr@V?$allocator@U?$_Tree_node@U?$pair@$$CBV?$basic_string@DU?$char_traits@D@std@@V?$allocator@D@2@@std@@V12@@std@@PEAX@std@@@std@@@std@@QEAA@AEAV?$allocator@U?$_Tree_node@U?$pair@$$CBV?$basic_string@DU?$char_traits@D@std@@V?$allocator@D@2@@std@@V12@@std@@PEAX@std@@@1@@Z
	??0?$_Alloc_construct_ptr@V?$allocator@U?$_Tree_node@U?$pair@$$CBV?$basic_string@DU?$char_traits@D@std@@V?$allocator@D@2@@std@@VEncodedAuthentication@cpr@@@std@@PEAX@std@@@std@@@std@@QEAA@AEAV?$allocator@U?$_Tree_node@U?$pair@$$CBV?$basic_string@DU?$char_traits@D@std@@V?$allocator@D@2@@std@@VEncodedAuthentication@cpr@@@std@@PEAX@std@@@1@@Z
	??0?$_Container_proxy_ptr12@V?$allocator@U_Container_proxy@std@@@std@@@std@@QEAA@AEAV?$allocator@U_Container_proxy@std@@@1@AEAU_Container_base12@1@@Z
	??0?$_Func_class@XW4InfoType@DebugCallback@cpr@@V?$basic_string@DU?$char_traits@D@std@@V?$allocator@D@2@@std@@_J@std@@QEAA@XZ
	??0?$_Func_class@_NPEADAEA_K_J@std@@QEAA@XZ
	??0?$_Func_class@_NV?$basic_string@DU?$char_traits@D@std@@V?$allocator@D@2@@std@@_J@std@@QEAA@XZ
	??0?$_Func_class@_N_J_J_J_J_J@std@@QEAA@XZ
	??0?$_Ptr_base@UCurlHolder@cpr@@@std@@IEAA@XZ
	??0?$_Ref_count@UCurlHolder@cpr@@@std@@QEAA@PEAUCurlHolder@cpr@@@Z
	??0?$_String_bitmap@D$00@std@@QEAA@XZ
	??0?$_String_const_iterator@V?$_String_val@U?$_Simple_types@D@std@@@std@@@std@@QEAA@PEBDPEBU_Container_base12@1@@Z
	??0?$_String_val@U?$_Simple_types@D@std@@@std@@QEAA@XZ
	??0?$_Temporary_owner@UCurlHolder@cpr@@@std@@QEAA@QEAUCurlHolder@cpr@@@Z
	??0?$_Tree@V?$_Tmap_traits@V?$basic_string@DU?$char_traits@D@std@@V?$allocator@D@2@@std@@V12@U?$less@V?$basic_string@DU?$char_traits@D@std@@V?$allocator@D@2@@std@@@2@V?$allocator@U?$pair@$$CBV?$basic_string@DU?$char_traits@D@std@@V?$allocator@D@2@@std@@V12@@std@@@2@$0A@@std@@@std@@QEAA@$$QEAV01@@Z
	??0?$_Tree@V?$_Tmap_traits@V?$basic_string@DU?$char_traits@D@std@@V?$allocator@D@2@@std@@V12@U?$less@V?$basic_string@DU?$char_traits@D@std@@V?$allocator@D@2@@std@@@2@V?$allocator@U?$pair@$$CBV?$basic_string@DU?$char_traits@D@std@@V?$allocator@D@2@@std@@V12@@std@@@2@$0A@@std@@@std@@QEAA@AEBU?$less@V?$basic_string@DU?$char_traits@D@std@@V?$allocator@D@2@@std@@@1@@Z
	??0?$_Tree@V?$_Tmap_traits@V?$basic_string@DU?$char_traits@D@std@@V?$allocator@D@2@@std@@V12@UCaseInsensitiveCompare@cpr@@V?$allocator@U?$pair@$$CBV?$basic_string@DU?$char_traits@D@std@@V?$allocator@D@2@@std@@V12@@std@@@2@$0A@@std@@@std@@QEAA@$$QEAV01@@Z
	??0?$_Tree@V?$_Tmap_traits@V?$basic_string@DU?$char_traits@D@std@@V?$allocator@D@2@@std@@V12@UCaseInsensitiveCompare@cpr@@V?$allocator@U?$pair@$$CBV?$basic_string@DU?$char_traits@D@std@@V?$allocator@D@2@@std@@V12@@std@@@2@$0A@@std@@@std@@QEAA@AEBUCaseInsensitiveCompare@cpr@@@Z
	??0?$_Tree@V?$_Tmap_traits@V?$basic_string@DU?$char_traits@D@std@@V?$allocator@D@2@@std@@VEncodedAuthentication@cpr@@U?$less@V?$basic_string@DU?$char_traits@D@std@@V?$allocator@D@2@@std@@@2@V?$allocator@U?$pair@$$CBV?$basic_string@DU?$char_traits@D@std@@V?$allocator@D@2@@std@@VEncodedAuthentication@cpr@@@std@@@2@$0A@@std@@@std@@QEAA@AEBU?$less@V?$basic_string@DU?$char_traits@D@std@@V?$allocator@D@2@@std@@@1@@Z
	??0?$_Tree_const_iterator@V?$_Tree_val@U?$_Tree_simple_types@U?$pair@$$CBV?$basic_string@DU?$char_traits@D@std@@V?$allocator@D@2@@std@@V12@@std@@@std@@@std@@@std@@QEAA@PEAU?$_Tree_node@U?$pair@$$CBV?$basic_string@DU?$char_traits@D@std@@V?$allocator@D@2@@std@@V12@@std@@PEAX@1@PEBV?$_Tree_val@U?$_Tree_simple_types@U?$pair@$$CBV?$basic_string@DU?$char_traits@D@std@@V?$allocator@D@2@@std@@V12@@std@@@std@@@1@@Z
	??0?$_Tree_iterator@V?$_Tree_val@U?$_Tree_simple_types@U?$pair@$$CBV?$basic_string@DU?$char_traits@D@std@@V?$allocator@D@2@@std@@V12@@std@@@std@@@std@@@std@@QEAA@PEAU?$_Tree_node@U?$pair@$$CBV?$basic_string@DU?$char_traits@D@std@@V?$allocator@D@2@@std@@V12@@std@@PEAX@1@PEBV?$_Tree_val@U?$_Tree_simple_types@U?$pair@$$CBV?$basic_string@DU?$char_traits@D@std@@V?$allocator@D@2@@std@@V12@@std@@@std@@@1@@Z
	??0?$_Tree_temp_node_alloc@V?$allocator@U?$_Tree_node@U?$pair@$$CBV?$basic_string@DU?$char_traits@D@std@@V?$allocator@D@2@@std@@V12@@std@@PEAX@std@@@std@@@std@@QEAA@AEAV?$allocator@U?$_Tree_node@U?$pair@$$CBV?$basic_string@DU?$char_traits@D@std@@V?$allocator@D@2@@std@@V12@@std@@PEAX@std@@@1@@Z
	??0?$_Tree_temp_node_alloc@V?$allocator@U?$_Tree_node@U?$pair@$$CBV?$basic_string@DU?$char_traits@D@std@@V?$allocator@D@2@@std@@VEncodedAuthentication@cpr@@@std@@PEAX@std@@@std@@@std@@QEAA@AEAV?$allocator@U?$_Tree_node@U?$pair@$$CBV?$basic_string@DU?$char_traits@D@std@@V?$allocator@D@2@@std@@VEncodedAuthentication@cpr@@@std@@PEAX@std@@@1@@Z
	??0?$_Tree_unchecked_const_iterator@V?$_Tree_val@U?$_Tree_simple_types@U?$pair@$$CBV?$basic_string@DU?$char_traits@D@std@@V?$allocator@D@2@@std@@V12@@std@@@std@@@std@@U_Iterator_base0@2@@std@@QEAA@PEAU?$_Tree_node@U?$pair@$$CBV?$basic_string@DU?$char_traits@D@std@@V?$allocator@D@2@@std@@V12@@std@@PEAX@1@PEBV?$_Tree_val@U?$_Tree_simple_types@U?$pair@$$CBV?$basic_string@DU?$char_traits@D@std@@V?$allocator@D@2@@std@@V12@@std@@@std@@@1@@Z
	??0?$_Tree_unchecked_const_iterator@V?$_Tree_val@U?$_Tree_simple_types@U?$pair@$$CBV?$basic_string@DU?$char_traits@D@std@@V?$allocator@D@2@@std@@V12@@std@@@std@@@std@@U_Iterator_base12@2@@std@@QEAA@PEAU?$_Tree_node@U?$pair@$$CBV?$basic_string@DU?$char_traits@D@std@@V?$allocator@D@2@@std@@V12@@std@@PEAX@1@PEBV?$_Tree_val@U?$_Tree_simple_types@U?$pair@$$CBV?$basic_string@DU?$char_traits@D@std@@V?$allocator@D@2@@std@@V12@@std@@@std@@@1@@Z
	??0?$_Tree_unchecked_iterator@V?$_Tree_val@U?$_Tree_simple_types@U?$pair@$$CBV?$basic_string@DU?$char_traits@D@std@@V?$allocator@D@2@@std@@V12@@std@@@std@@@std@@@std@@QEAA@PEAU?$_Tree_node@U?$pair@$$CBV?$basic_string@DU?$char_traits@D@std@@V?$allocator@D@2@@std@@V12@@std@@PEAX@1@PEBV?$_Tree_val@U?$_Tree_simple_types@U?$pair@$$CBV?$basic_string@DU?$char_traits@D@std@@V?$allocator@D@2@@std@@V12@@std@@@std@@@1@@Z
	??0?$_Tree_val@U?$_Tree_simple_types@U?$pair@$$CBV?$basic_string@DU?$char_traits@D@std@@V?$allocator@D@2@@std@@V12@@std@@@std@@@std@@QEAA@XZ
	??0?$_Tree_val@U?$_Tree_simple_types@U?$pair@$$CBV?$basic_string@DU?$char_traits@D@std@@V?$allocator@D@2@@std@@VEncodedAuthentication@cpr@@@std@@@std@@@std@@QEAA@XZ
	??0?$_Uninitialized_backout_al@V?$allocator@UPair@cpr@@@std@@@std@@QEAA@PEAUPair@cpr@@AEAV?$allocator@UPair@cpr@@@1@@Z
	??0?$_Uninitialized_backout_al@V?$allocator@UParameter@cpr@@@std@@@std@@QEAA@PEAUParameter@cpr@@AEAV?$allocator@UParameter@cpr@@@1@@Z
	??0?$_Uninitialized_backout_al@V?$allocator@UPart@cpr@@@std@@@std@@QEAA@PEAUPart@cpr@@AEAV?$allocator@UPart@cpr@@@1@@Z
	??0?$_Uninitialized_backout_al@V?$allocator@Ucurl_forms@@@std@@@std@@QEAA@PEAUcurl_forms@@AEAV?$allocator@Ucurl_forms@@@1@@Z
	??0?$_Uninitialized_backout_al@V?$allocator@V?$basic_string@DU?$char_traits@D@std@@V?$allocator@D@2@@std@@@std@@@std@@QEAA@PEAV?$basic_string@DU?$char_traits@D@std@@V?$allocator@D@2@@1@AEAV?$allocator@V?$basic_string@DU?$char_traits@D@std@@V?$allocator@D@2@@std@@@1@@Z
	??0?$_Vector_val@U?$_Simple_types@UPair@cpr@@@std@@@std@@QEAA@XZ
	??0?$_Vector_val@U?$_Simple_types@UParameter@cpr@@@std@@@std@@QEAA@XZ
	??0?$_Vector_val@U?$_Simple_types@UPart@cpr@@@std@@@std@@QEAA@XZ
	??0?$_Vector_val@U?$_Simple_types@Ucurl_forms@@@std@@@std@@QEAA@XZ
	??0?$_Vector_val@U?$_Simple_types@V?$basic_string@DU?$char_traits@D@std@@V?$allocator@D@2@@std@@@std@@@std@@QEAA@PEAV?$basic_string@DU?$char_traits@D@std@@V?$allocator@D@2@@1@00@Z
	??0?$_Vector_val@U?$_Simple_types@V?$basic_string@DU?$char_traits@D@std@@V?$allocator@D@2@@std@@@std@@@std@@QEAA@XZ
	??0?$allocator@D@std@@QEAA@XZ
	??0?$allocator@U?$_Tree_node@U?$pair@$$CBV?$basic_string@DU?$char_traits@D@std@@V?$allocator@D@2@@std@@V12@@std@@PEAX@std@@@std@@QEAA@XZ
	??0?$allocator@U?$_Tree_node@U?$pair@$$CBV?$basic_string@DU?$char_traits@D@std@@V?$allocator@D@2@@std@@VEncodedAuthentication@cpr@@@std@@PEAX@std@@@std@@QEAA@XZ
	??0?$allocator@UPair@cpr@@@std@@QEAA@XZ
	??0?$allocator@UParameter@cpr@@@std@@QEAA@XZ
	??0?$allocator@UPart@cpr@@@std@@QEAA@XZ
	??0?$allocator@Ucurl_forms@@@std@@QEAA@XZ
	??0?$allocator@V?$basic_string@DU?$char_traits@D@std@@V?$allocator@D@2@@std@@@std@@QEAA@XZ
	??0?$back_insert_iterator@V?$vector@UPair@cpr@@V?$allocator@UPair@cpr@@@std@@@std@@@std@@QEAA@AEAV?$vector@UPair@cpr@@V?$allocator@UPair@cpr@@@std@@@1@@Z
	??0?$back_insert_iterator@V?$vector@UParameter@cpr@@V?$allocator@UParameter@cpr@@@std@@@std@@@std@@QEAA@AEAV?$vector@UParameter@cpr@@V?$allocator@UParameter@cpr@@@std@@@1@@Z
	??0?$basic_istringstream@DU?$char_traits@D@std@@V?$allocator@D@2@@std@@QEAA@AEBV?$basic_string@DU?$char_traits@D@std@@V?$allocator@D@2@@1@H@Z
	??0?$basic_string@DU?$char_traits@D@std@@V?$allocator@D@2@@std@@QEAA@$$QEAV01@@Z
	??0?$basic_string@DU?$char_traits@D@std@@V?$allocator@D@2@@std@@QEAA@AEBV01@@Z
	??0?$basic_string@DU?$char_traits@D@std@@V?$allocator@D@2@@std@@QEAA@AEBV01@_K1AEBV?$allocator@D@1@@Z
	??0?$basic_string@DU?$char_traits@D@std@@V?$allocator@D@2@@std@@QEAA@AEBV?$allocator@D@1@@Z
	??0?$basic_string@DU?$char_traits@D@std@@V?$allocator@D@2@@std@@QEAA@QEBD@Z
	??0?$basic_string@DU?$char_traits@D@std@@V?$allocator@D@2@@std@@QEAA@QEBD_K@Z
	??0?$basic_string@DU?$char_traits@D@std@@V?$allocator@D@2@@std@@QEAA@U_String_constructor_concat_tag@1@AEAV01@1@Z
	??0?$basic_string@DU?$char_traits@D@std@@V?$allocator@D@2@@std@@QEAA@U_String_constructor_concat_tag@1@AEBV01@QEBD_K23@Z
	??0?$basic_string@DU?$char_traits@D@std@@V?$allocator@D@2@@std@@QEAA@XZ
	??0?$basic_stringbuf@DU?$char_traits@D@std@@V?$allocator@D@2@@std@@QEAA@AEBV?$basic_string@DU?$char_traits@D@std@@V?$allocator@D@2@@1@H@Z
	??0?$basic_stringbuf@DU?$char_traits@D@std@@V?$allocator@D@2@@std@@QEAA@H@Z
	??0?$basic_stringstream@DU?$char_traits@D@std@@V?$allocator@D@2@@std@@QEAA@AEBV?$basic_string@DU?$char_traits@D@std@@V?$allocator@D@2@@1@H@Z
	??0?$basic_stringstream@DU?$char_traits@D@std@@V?$allocator@D@2@@std@@QEAA@XZ
	??0?$fpos@U_Mbstatet@@@std@@QEAA@_J@Z
	??0?$function@$$A6AXW4InfoType@DebugCallback@cpr@@V?$basic_string@DU?$char_traits@D@std@@V?$allocator@D@2@@std@@_J@Z@std@@QEAA@AEBV01@@Z
	??0?$function@$$A6AXW4InfoType@DebugCallback@cpr@@V?$basic_string@DU?$char_traits@D@std@@V?$allocator@D@2@@std@@_J@Z@std@@QEAA@XZ
	??0?$function@$$A6A_NPEADAEA_K_J@Z@std@@QEAA@AEBV01@@Z
	??0?$function@$$A6A_NPEADAEA_K_J@Z@std@@QEAA@XZ
	??0?$function@$$A6A_NV?$basic_string@DU?$char_traits@D@std@@V?$allocator@D@2@@std@@_J@Z@std@@QEAA@AEBV01@@Z
	??0?$function@$$A6A_NV?$basic_string@DU?$char_traits@D@std@@V?$allocator@D@2@@std@@_J@Z@std@@QEAA@XZ
	??0?$function@$$A6A_N_J0000@Z@std@@QEAA@AEBV01@@Z
	??0?$function@$$A6A_N_J0000@Z@std@@QEAA@XZ
	??0?$map@V?$basic_string@DU?$char_traits@D@std@@V?$allocator@D@2@@std@@V12@U?$less@V?$basic_string@DU?$char_traits@D@std@@V?$allocator@D@2@@std@@@2@V?$allocator@U?$pair@$$CBV?$basic_string@DU?$char_traits@D@std@@V?$allocator@D@2@@std@@V12@@std@@@2@@std@@QEAA@$$QEAV01@@Z
	??0?$map@V?$basic_string@DU?$char_traits@D@std@@V?$allocator@D@2@@std@@V12@U?$less@V?$basic_string@DU?$char_traits@D@std@@V?$allocator@D@2@@std@@@2@V?$allocator@U?$pair@$$CBV?$basic_string@DU?$char_traits@D@std@@V?$allocator@D@2@@std@@V12@@std@@@2@@std@@QEAA@V?$initializer_list@U?$pair@$$CBV?$basic_string@DU?$char_traits@D@std@@V?$allocator@D@2@@std@@V12@@std@@@1@@Z
	??0?$map@V?$basic_string@DU?$char_traits@D@std@@V?$allocator@D@2@@std@@V12@U?$less@V?$basic_string@DU?$char_traits@D@std@@V?$allocator@D@2@@std@@@2@V?$allocator@U?$pair@$$CBV?$basic_string@DU?$char_traits@D@std@@V?$allocator@D@2@@std@@V12@@std@@@2@@std@@QEAA@XZ
	??0?$map@V?$basic_string@DU?$char_traits@D@std@@V?$allocator@D@2@@std@@V12@UCaseInsensitiveCompare@cpr@@V?$allocator@U?$pair@$$CBV?$basic_string@DU?$char_traits@D@std@@V?$allocator@D@2@@std@@V12@@std@@@2@@std@@QEAA@$$QEAV01@@Z
	??0?$map@V?$basic_string@DU?$char_traits@D@std@@V?$allocator@D@2@@std@@V12@UCaseInsensitiveCompare@cpr@@V?$allocator@U?$pair@$$CBV?$basic_string@DU?$char_traits@D@std@@V?$allocator@D@2@@std@@V12@@std@@@2@@std@@QEAA@XZ
	??0?$map@V?$basic_string@DU?$char_traits@D@std@@V?$allocator@D@2@@std@@VEncodedAuthentication@cpr@@U?$less@V?$basic_string@DU?$char_traits@D@std@@V?$allocator@D@2@@std@@@2@V?$allocator@U?$pair@$$CBV?$basic_string@DU?$char_traits@D@std@@V?$allocator@D@2@@std@@VEncodedAuthentication@cpr@@@std@@@2@@std@@QEAA@XZ
	??0?$pair@$$CBV?$basic_string@DU?$char_traits@D@std@@V?$allocator@D@2@@std@@V12@@std@@QEAA@AEBU01@@Z
	??0?$pair@$$CBV?$basic_string@DU?$char_traits@D@std@@V?$allocator@D@2@@std@@VEncodedAuthentication@cpr@@@std@@QEAA@AEBU01@@Z
	??0?$shared_ptr@UCurlHolder@cpr@@@std@@QEAA@$$QEAV01@@Z
	??0?$shared_ptr@UCurlHolder@cpr@@@std@@QEAA@AEBV01@@Z
	??0?$tuple@$$QEAV?$basic_string@DU?$char_traits@D@std@@V?$allocator@D@2@@std@@@std@@QEAA@$$QEAV01@@Z
	??0?$tuple@$$V@std@@QEAA@AEBV01@@Z
	??0?$tuple@AEBV?$basic_string@DU?$char_traits@D@std@@V?$allocator@D@2@@std@@@std@@QEAA@$$QEAV01@@Z
	??0?$vector@UPair@cpr@@V?$allocator@UPair@cpr@@@std@@@std@@QEAA@V?$initializer_list@UPair@cpr@@@1@AEBV?$allocator@UPair@cpr@@@1@@Z
	??0?$vector@UParameter@cpr@@V?$allocator@UParameter@cpr@@@std@@@std@@QEAA@V?$initializer_list@UParameter@cpr@@@1@AEBV?$allocator@UParameter@cpr@@@1@@Z
	??0?$vector@UParameter@cpr@@V?$allocator@UParameter@cpr@@@std@@@std@@QEAA@XZ
	??0?$vector@UPart@cpr@@V?$allocator@UPart@cpr@@@std@@@std@@QEAA@V?$initializer_list@UPart@cpr@@@1@AEBV?$allocator@UPart@cpr@@@1@@Z
	??0?$vector@Ucurl_forms@@V?$allocator@Ucurl_forms@@@std@@@std@@QEAA@XZ
	??0?$vector@V?$basic_string@DU?$char_traits@D@std@@V?$allocator@D@2@@std@@V?$allocator@V?$basic_string@DU?$char_traits@D@std@@V?$allocator@D@2@@std@@@2@@std@@QEAA@$$QEAV01@@Z
	??0?$vector@V?$basic_string@DU?$char_traits@D@std@@V?$allocator@D@2@@std@@V?$allocator@V?$basic_string@DU?$char_traits@D@std@@V?$allocator@D@2@@std@@@2@@std@@QEAA@XZ
	??0Cookies@cpr@@QEAA@$$QEAV01@@Z
	??0Cookies@cpr@@QEAA@_N@Z
	??0CurlHolder@cpr@@QEAA@XZ
	??0DebugCallback@cpr@@QEAA@XZ
	??0EncodedAuthentication@cpr@@QEAA@AEBV01@@Z
	??0EncodedAuthentication@cpr@@QEAA@XZ
	??0Error@cpr@@QEAA@$$QEAV01@@Z
	??0Error@cpr@@QEAA@AEBH$$QEAV?$basic_string@DU?$char_traits@D@std@@V?$allocator@D@2@@std@@@Z
	??0HeaderCallback@cpr@@QEAA@XZ
	??0Impl@Session@cpr@@QEAA@XZ
	??0Multipart@cpr@@QEAA@AEBV?$initializer_list@UPart@cpr@@@std@@@Z
	??0Pair@cpr@@QEAA@$$QEAU01@@Z
	??0Pair@cpr@@QEAA@AEBU01@@Z
	??0Parameter@cpr@@QEAA@$$QEAU01@@Z
	??0Parameter@cpr@@QEAA@AEBU01@@Z
	??0Parameters@cpr@@QEAA@AEBV?$initializer_list@UParameter@cpr@@@std@@@Z
	??0Parameters@cpr@@QEAA@XZ
	??0Part@cpr@@QEAA@AEBU01@@Z
	??0Payload@cpr@@QEAA@AEBV?$initializer_list@UPair@cpr@@@std@@@Z
	??0ProgressCallback@cpr@@QEAA@XZ
	??0Proxies@cpr@@QEAA@AEBV?$initializer_list@U?$pair@$$CBV?$basic_string@DU?$char_traits@D@std@@V?$allocator@D@2@@std@@V12@@std@@@std@@@Z
	??0Proxies@cpr@@QEAA@XZ
	??0ProxyAuthentication@cpr@@QEAA@XZ
	??0ReadCallback@cpr@@QEAA@XZ
	??0Redirect@cpr@@QEAA@XZ
	??0Response@cpr@@QEAA@V?$shared_ptr@UCurlHolder@cpr@@@std@@$$QEAV?$basic_string@DU?$char_traits@D@std@@V?$allocator@D@2@@3@1$$QEAVCookies@1@$$QEAVError@1@@Z
	??0Session@cpr@@QEAA@$$QEAV01@@Z
	??0Session@cpr@@QEAA@XZ
	??0Url@cpr@@QEAA@$$QEAV?$basic_string@DU?$char_traits@D@std@@V?$allocator@D@2@@std@@@Z
	??0Url@cpr@@QEAA@PEBD@Z
	??0Url@cpr@@QEAA@XZ
	??0WriteCallback@cpr@@QEAA@XZ
	??0_Basic_container_proxy_ptr12@std@@IEAA@XZ
	??0_Bxty@?$_String_val@U?$_Simple_types@D@std@@@std@@QEAA@XZ
	??0_Container_base12@std@@QEAA@XZ
	??0_Container_proxy@std@@QEAA@PEAU_Container_base12@1@@Z
	??0_Iterator_base12@std@@QEAA@XZ
	??0_Ref_count_base@std@@IEAA@XZ
	??0_Sentry_base@?$basic_istream@DU?$char_traits@D@std@@@std@@QEAA@AEAV12@@Z
	??0_Sentry_base@?$basic_ostream@DU?$char_traits@D@std@@@std@@QEAA@AEAV12@@Z
	??0bad_alloc@std@@AEAA@QEBD@Z
	??0bad_alloc@std@@QEAA@AEBV01@@Z
	??0bad_array_new_length@std@@QEAA@AEBV01@@Z
	??0bad_array_new_length@std@@QEAA@XZ
	??0exception@std@@QEAA@AEBV01@@Z
	??0exception@std@@QEAA@QEBD@Z
	??0exception@std@@QEAA@QEBDH@Z
	??0invalid_argument@std@@QEAA@AEBV01@@Z
	??0invalid_argument@std@@QEAA@PEBD@Z
	??0logic_error@std@@QEAA@AEBV01@@Z
	??0logic_error@std@@QEAA@PEBD@Z
	??0overflow_error@std@@QEAA@AEBV01@@Z
	??0overflow_error@std@@QEAA@AEBV?$basic_string@DU?$char_traits@D@std@@V?$allocator@D@2@@1@@Z
	??0runtime_error@std@@QEAA@AEBV01@@Z
	??0runtime_error@std@@QEAA@PEBD@Z
	??0sentry@?$basic_istream@DU?$char_traits@D@std@@@std@@QEAA@AEAV12@_N@Z
	??0sentry@?$basic_ostream@DU?$char_traits@D@std@@@std@@QEAA@AEAV12@@Z
	??0underflow_error@std@@QEAA@AEBV01@@Z
	??0underflow_error@std@@QEAA@AEBV?$basic_string@DU?$char_traits@D@std@@V?$allocator@D@2@@1@@Z
	??1?$CurlContainer@UParameter@cpr@@@cpr@@QEAA@XZ
	??1?$StringHolder@VUrl@cpr@@@cpr@@UEAA@XZ
	??1?$_Alloc_construct_ptr@V?$allocator@U?$_Tree_node@U?$pair@$$CBV?$basic_string@DU?$char_traits@D@std@@V?$allocator@D@2@@std@@V12@@std@@PEAX@std@@@std@@@std@@QEAA@XZ
	??1?$_Alloc_construct_ptr@V?$allocator@U?$_Tree_node@U?$pair@$$CBV?$basic_string@DU?$char_traits@D@std@@V?$allocator@D@2@@std@@VEncodedAuthentication@cpr@@@std@@PEAX@std@@@std@@@std@@QEAA@XZ
	??1?$_Compressed_pair@V?$allocator@D@std@@V?$_String_val@U?$_Simple_types@D@std@@@2@$00@std@@QEAA@XZ
	??1?$_Container_proxy_ptr12@V?$allocator@U_Container_proxy@std@@@std@@@std@@QEAA@XZ
	??1?$_Func_class@XW4InfoType@DebugCallback@cpr@@V?$basic_string@DU?$char_traits@D@std@@V?$allocator@D@2@@std@@_J@std@@QEAA@XZ
	??1?$_Func_class@_NPEADAEA_K_J@std@@QEAA@XZ
	??1?$_Func_class@_NV?$basic_string@DU?$char_traits@D@std@@V?$allocator@D@2@@std@@_J@std@@QEAA@XZ
	??1?$_Func_class@_N_J_J_J_J_J@std@@QEAA@XZ
	??1?$_Ref_count@UCurlHolder@cpr@@@std@@UEAA@XZ
	??1?$_String_const_iterator@V?$_String_val@U?$_Simple_types@D@std@@@std@@@std@@QEAA@XZ
	??1?$_String_val@U?$_Simple_types@D@std@@@std@@QEAA@XZ
	??1?$_Temporary_owner@UCurlHolder@cpr@@@std@@QEAA@XZ
	??1?$_Tidy_guard@V?$vector@UPair@cpr@@V?$allocator@UPair@cpr@@@std@@@std@@@std@@QEAA@XZ
	??1?$_Tidy_guard@V?$vector@UParameter@cpr@@V?$allocator@UParameter@cpr@@@std@@@std@@@std@@QEAA@XZ
	??1?$_Tidy_guard@V?$vector@UPart@cpr@@V?$allocator@UPart@cpr@@@std@@@std@@@std@@QEAA@XZ
	??1?$_Tree@V?$_Tmap_traits@V?$basic_string@DU?$char_traits@D@std@@V?$allocator@D@2@@std@@V12@U?$less@V?$basic_string@DU?$char_traits@D@std@@V?$allocator@D@2@@std@@@2@V?$allocator@U?$pair@$$CBV?$basic_string@DU?$char_traits@D@std@@V?$allocator@D@2@@std@@V12@@std@@@2@$0A@@std@@@std@@QEAA@XZ
	??1?$_Tree@V?$_Tmap_traits@V?$basic_string@DU?$char_traits@D@std@@V?$allocator@D@2@@std@@V12@UCaseInsensitiveCompare@cpr@@V?$allocator@U?$pair@$$CBV?$basic_string@DU?$char_traits@D@std@@V?$allocator@D@2@@std@@V12@@std@@@2@$0A@@std@@@std@@QEAA@XZ
	??1?$_Tree@V?$_Tmap_traits@V?$basic_string@DU?$char_traits@D@std@@V?$allocator@D@2@@std@@VEncodedAuthentication@cpr@@U?$less@V?$basic_string@DU?$char_traits@D@std@@V?$allocator@D@2@@std@@@2@V?$allocator@U?$pair@$$CBV?$basic_string@DU?$char_traits@D@std@@V?$allocator@D@2@@std@@VEncodedAuthentication@cpr@@@std@@@2@$0A@@std@@@std@@QEAA@XZ
	??1?$_Tree_const_iterator@V?$_Tree_val@U?$_Tree_simple_types@U?$pair@$$CBV?$basic_string@DU?$char_traits@D@std@@V?$allocator@D@2@@std@@V12@@std@@@std@@@std@@@std@@QEAA@XZ
	??1?$_Tree_iterator@V?$_Tree_val@U?$_Tree_simple_types@U?$pair@$$CBV?$basic_string@DU?$char_traits@D@std@@V?$allocator@D@2@@std@@V12@@std@@@std@@@std@@@std@@QEAA@XZ
	??1?$_Tree_temp_node@V?$allocator@U?$_Tree_node@U?$pair@$$CBV?$basic_string@DU?$char_traits@D@std@@V?$allocator@D@2@@std@@V12@@std@@PEAX@std@@@std@@@std@@QEAA@XZ
	??1?$_Tree_temp_node@V?$allocator@U?$_Tree_node@U?$pair@$$CBV?$basic_string@DU?$char_traits@D@std@@V?$allocator@D@2@@std@@VEncodedAuthentication@cpr@@@std@@PEAX@std@@@std@@@std@@QEAA@XZ
	??1?$_Tree_temp_node_alloc@V?$allocator@U?$_Tree_node@U?$pair@$$CBV?$basic_string@DU?$char_traits@D@std@@V?$allocator@D@2@@std@@V12@@std@@PEAX@std@@@std@@@std@@QEAA@XZ
	??1?$_Tree_temp_node_alloc@V?$allocator@U?$_Tree_node@U?$pair@$$CBV?$basic_string@DU?$char_traits@D@std@@V?$allocator@D@2@@std@@VEncodedAuthentication@cpr@@@std@@PEAX@std@@@std@@@std@@QEAA@XZ
	??1?$_Tree_unchecked_const_iterator@V?$_Tree_val@U?$_Tree_simple_types@U?$pair@$$CBV?$basic_string@DU?$char_traits@D@std@@V?$allocator@D@2@@std@@V12@@std@@@std@@@std@@U_Iterator_base12@2@@std@@QEAA@XZ
	??1?$_Uninitialized_backout_al@V?$allocator@UPair@cpr@@@std@@@std@@QEAA@XZ
	??1?$_Uninitialized_backout_al@V?$allocator@UParameter@cpr@@@std@@@std@@QEAA@XZ
	??1?$_Uninitialized_backout_al@V?$allocator@UPart@cpr@@@std@@@std@@QEAA@XZ
	??1?$_Uninitialized_backout_al@V?$allocator@Ucurl_forms@@@std@@@std@@QEAA@XZ
	??1?$_Uninitialized_backout_al@V?$allocator@V?$basic_string@DU?$char_traits@D@std@@V?$allocator@D@2@@std@@@std@@@std@@QEAA@XZ
	??1?$basic_istringstream@DU?$char_traits@D@std@@V?$allocator@D@2@@std@@UEAA@XZ
	??1?$basic_string@DU?$char_traits@D@std@@V?$allocator@D@2@@std@@QEAA@XZ
	??1?$basic_stringbuf@DU?$char_traits@D@std@@V?$allocator@D@2@@std@@UEAA@XZ
	??1?$basic_stringstream@DU?$char_traits@D@std@@V?$allocator@D@2@@std@@UEAA@XZ
	??1?$function@$$A6AXW4InfoType@DebugCallback@cpr@@V?$basic_string@DU?$char_traits@D@std@@V?$allocator@D@2@@std@@_J@Z@std@@QEAA@XZ
	??1?$function@$$A6A_NPEADAEA_K_J@Z@std@@QEAA@XZ
	??1?$function@$$A6A_NV?$basic_string@DU?$char_traits@D@std@@V?$allocator@D@2@@std@@_J@Z@std@@QEAA@XZ
	??1?$function@$$A6A_N_J0000@Z@std@@QEAA@XZ
	??1?$map@V?$basic_string@DU?$char_traits@D@std@@V?$allocator@D@2@@std@@V12@U?$less@V?$basic_string@DU?$char_traits@D@std@@V?$allocator@D@2@@std@@@2@V?$allocator@U?$pair@$$CBV?$basic_string@DU?$char_traits@D@std@@V?$allocator@D@2@@std@@V12@@std@@@2@@std@@QEAA@XZ
	??1?$map@V?$basic_string@DU?$char_traits@D@std@@V?$allocator@D@2@@std@@V12@UCaseInsensitiveCompare@cpr@@V?$allocator@U?$pair@$$CBV?$basic_string@DU?$char_traits@D@std@@V?$allocator@D@2@@std@@V12@@std@@@2@@std@@QEAA@XZ
	??1?$map@V?$basic_string@DU?$char_traits@D@std@@V?$allocator@D@2@@std@@VEncodedAuthentication@cpr@@U?$less@V?$basic_string@DU?$char_traits@D@std@@V?$allocator@D@2@@std@@@2@V?$allocator@U?$pair@$$CBV?$basic_string@DU?$char_traits@D@std@@V?$allocator@D@2@@std@@VEncodedAuthentication@cpr@@@std@@@2@@std@@QEAA@XZ
	??1?$pair@$$CBV?$basic_string@DU?$char_traits@D@std@@V?$allocator@D@2@@std@@V12@@std@@QEAA@XZ
	??1?$pair@$$CBV?$basic_string@DU?$char_traits@D@std@@V?$allocator@D@2@@std@@VEncodedAuthentication@cpr@@@std@@QEAA@XZ
	??1?$shared_ptr@UCurlHolder@cpr@@@std@@QEAA@XZ
	??1?$unique_ptr@VImpl@Session@cpr@@U?$default_delete@VImpl@Session@cpr@@@std@@@std@@QEAA@XZ
	??1?$vector@UParameter@cpr@@V?$allocator@UParameter@cpr@@@std@@@std@@QEAA@XZ
	??1?$vector@Ucurl_forms@@V?$allocator@Ucurl_forms@@@std@@@std@@QEAA@XZ
	??1?$vector@V?$basic_string@DU?$char_traits@D@std@@V?$allocator@D@2@@std@@V?$allocator@V?$basic_string@DU?$char_traits@D@std@@V?$allocator@D@2@@std@@@2@@std@@QEAA@XZ
	??1Cookies@cpr@@QEAA@XZ
	??1CurlHolder@cpr@@QEAA@XZ
	??1DebugCallback@cpr@@QEAA@XZ
	??1EncodedAuthentication@cpr@@UEAA@XZ
	??1Error@cpr@@QEAA@XZ
	??1HeaderCallback@cpr@@QEAA@XZ
	??1Impl@Session@cpr@@QEAA@XZ
	??1Pair@cpr@@QEAA@XZ
	??1Parameter@cpr@@QEAA@XZ
	??1Parameters@cpr@@QEAA@XZ
	??1Part@cpr@@QEAA@XZ
	??1ProgressCallback@cpr@@QEAA@XZ
	??1Proxies@cpr@@QEAA@XZ
	??1ProxyAuthentication@cpr@@QEAA@XZ
	??1ReadCallback@cpr@@QEAA@XZ
	??1Session@cpr@@QEAA@XZ
	??1Url@cpr@@UEAA@XZ
	??1WriteCallback@cpr@@QEAA@XZ
	??1_Bxty@?$_String_val@U?$_Simple_types@D@std@@@std@@QEAA@XZ
	??1_Iterator_base12@std@@QEAA@XZ
	??1_Ref_count_base@std@@UEAA@XZ
	??1_Sentry_base@?$basic_istream@DU?$char_traits@D@std@@@std@@QEAA@XZ
	??1_Sentry_base@?$basic_ostream@DU?$char_traits@D@std@@@std@@QEAA@XZ
	??1bad_alloc@std@@UEAA@XZ
	??1bad_array_new_length@std@@UEAA@XZ
	??1exception@std@@UEAA@XZ
	??1invalid_argument@std@@UEAA@XZ
	??1logic_error@std@@UEAA@XZ
	??1overflow_error@std@@UEAA@XZ
	??1runtime_error@std@@UEAA@XZ
	??1sentry@?$basic_istream@DU?$char_traits@D@std@@@std@@QEAA@XZ
	??1sentry@?$basic_ostream@DU?$char_traits@D@std@@@std@@QEAA@XZ
	??1underflow_error@std@@UEAA@XZ
	??2@YAPEAX_KPEAX@Z
	??4?$CurlContainer@UParameter@cpr@@@cpr@@QEAAAEAV01@$$QEAV01@@Z
	??4?$CurlContainer@UParameter@cpr@@@cpr@@QEAAAEAV01@AEBV01@@Z
	??4?$StringHolder@VUrl@cpr@@@cpr@@QEAAAEAV01@$$QEAV01@@Z
	??4?$StringHolder@VUrl@cpr@@@cpr@@QEAAAEAV01@AEBV01@@Z
	??4?$_Tree@V?$_Tmap_traits@V?$basic_string@DU?$char_traits@D@std@@V?$allocator@D@2@@std@@V12@U?$less@V?$basic_string@DU?$char_traits@D@std@@V?$allocator@D@2@@std@@@2@V?$allocator@U?$pair@$$CBV?$basic_string@DU?$char_traits@D@std@@V?$allocator@D@2@@std@@V12@@std@@@2@$0A@@std@@@std@@QEAAAEAV01@$$QEAV01@@Z
	??4?$_Tree@V?$_Tmap_traits@V?$basic_string@DU?$char_traits@D@std@@V?$allocator@D@2@@std@@V12@U?$less@V?$basic_string@DU?$char_traits@D@std@@V?$allocator@D@2@@std@@@2@V?$allocator@U?$pair@$$CBV?$basic_string@DU?$char_traits@D@std@@V?$allocator@D@2@@std@@V12@@std@@@2@$0A@@std@@@std@@QEAAAEAV01@AEBV01@@Z
	??4?$_Tree@V?$_Tmap_traits@V?$basic_string@DU?$char_traits@D@std@@V?$allocator@D@2@@std@@V12@UCaseInsensitiveCompare@cpr@@V?$allocator@U?$pair@$$CBV?$basic_string@DU?$char_traits@D@std@@V?$allocator@D@2@@std@@V12@@std@@@2@$0A@@std@@@std@@QEAAAEAV01@$$QEAV01@@Z
	??4?$_Tree@V?$_Tmap_traits@V?$basic_string@DU?$char_traits@D@std@@V?$allocator@D@2@@std@@V12@UCaseInsensitiveCompare@cpr@@V?$allocator@U?$pair@$$CBV?$basic_string@DU?$char_traits@D@std@@V?$allocator@D@2@@std@@V12@@std@@@2@$0A@@std@@@std@@QEAAAEAV01@AEBV01@@Z
	??4?$_Tree@V?$_Tmap_traits@V?$basic_string@DU?$char_traits@D@std@@V?$allocator@D@2@@std@@VEncodedAuthentication@cpr@@U?$less@V?$basic_string@DU?$char_traits@D@std@@V?$allocator@D@2@@std@@@2@V?$allocator@U?$pair@$$CBV?$basic_string@DU?$char_traits@D@std@@V?$allocator@D@2@@std@@VEncodedAuthentication@cpr@@@std@@@2@$0A@@std@@@std@@QEAAAEAV01@$$QEAV01@@Z
	??4?$_Tree@V?$_Tmap_traits@V?$basic_string@DU?$char_traits@D@std@@V?$allocator@D@2@@std@@VEncodedAuthentication@cpr@@U?$less@V?$basic_string@DU?$char_traits@D@std@@V?$allocator@D@2@@std@@@2@V?$allocator@U?$pair@$$CBV?$basic_string@DU?$char_traits@D@std@@V?$allocator@D@2@@std@@VEncodedAuthentication@cpr@@@std@@@2@$0A@@std@@@std@@QEAAAEAV01@AEBV01@@Z
	??4?$back_insert_iterator@V?$vector@UPair@cpr@@V?$allocator@UPair@cpr@@@std@@@std@@@std@@QEAAAEAV01@$$QEAUPair@cpr@@@Z
	??4?$back_insert_iterator@V?$vector@UParameter@cpr@@V?$allocator@UParameter@cpr@@@std@@@std@@@std@@QEAAAEAV01@$$QEAUParameter@cpr@@@Z
	??4?$basic_string@DU?$char_traits@D@std@@V?$allocator@D@2@@std@@QEAAAEAV01@$$QEAV01@@Z
	??4?$basic_string@DU?$char_traits@D@std@@V?$allocator@D@2@@std@@QEAAAEAV01@AEBV01@@Z
	??4?$function@$$A6AXW4InfoType@DebugCallback@cpr@@V?$basic_string@DU?$char_traits@D@std@@V?$allocator@D@2@@std@@_J@Z@std@@QEAAAEAV01@AEBV01@@Z
	??4?$function@$$A6A_NPEADAEA_K_J@Z@std@@QEAAAEAV01@AEBV01@@Z
	??4?$function@$$A6A_NV?$basic_string@DU?$char_traits@D@std@@V?$allocator@D@2@@std@@_J@Z@std@@QEAAAEAV01@AEBV01@@Z
	??4?$function@$$A6A_N_J0000@Z@std@@QEAAAEAV01@AEBV01@@Z
	??4?$map@V?$basic_string@DU?$char_traits@D@std@@V?$allocator@D@2@@std@@V12@U?$less@V?$basic_string@DU?$char_traits@D@std@@V?$allocator@D@2@@std@@@2@V?$allocator@U?$pair@$$CBV?$basic_string@DU?$char_traits@D@std@@V?$allocator@D@2@@std@@V12@@std@@@2@@std@@QEAAAEAV01@$$QEAV01@@Z
	??4?$map@V?$basic_string@DU?$char_traits@D@std@@V?$allocator@D@2@@std@@V12@U?$less@V?$basic_string@DU?$char_traits@D@std@@V?$allocator@D@2@@std@@@2@V?$allocator@U?$pair@$$CBV?$basic_string@DU?$char_traits@D@std@@V?$allocator@D@2@@std@@V12@@std@@@2@@std@@QEAAAEAV01@AEBV01@@Z
	??4?$map@V?$basic_string@DU?$char_traits@D@std@@V?$allocator@D@2@@std@@V12@UCaseInsensitiveCompare@cpr@@V?$allocator@U?$pair@$$CBV?$basic_string@DU?$char_traits@D@std@@V?$allocator@D@2@@std@@V12@@std@@@2@@std@@QEAAAEAV01@$$QEAV01@@Z
	??4?$map@V?$basic_string@DU?$char_traits@D@std@@V?$allocator@D@2@@std@@V12@UCaseInsensitiveCompare@cpr@@V?$allocator@U?$pair@$$CBV?$basic_string@DU?$char_traits@D@std@@V?$allocator@D@2@@std@@V12@@std@@@2@@std@@QEAAAEAV01@AEBV01@@Z
	??4?$map@V?$basic_string@DU?$char_traits@D@std@@V?$allocator@D@2@@std@@VEncodedAuthentication@cpr@@U?$less@V?$basic_string@DU?$char_traits@D@std@@V?$allocator@D@2@@std@@@2@V?$allocator@U?$pair@$$CBV?$basic_string@DU?$char_traits@D@std@@V?$allocator@D@2@@std@@VEncodedAuthentication@cpr@@@std@@@2@@std@@QEAAAEAV01@$$QEAV01@@Z
	??4?$map@V?$basic_string@DU?$char_traits@D@std@@V?$allocator@D@2@@std@@VEncodedAuthentication@cpr@@U?$less@V?$basic_string@DU?$char_traits@D@std@@V?$allocator@D@2@@std@@@2@V?$allocator@U?$pair@$$CBV?$basic_string@DU?$char_traits@D@std@@V?$allocator@D@2@@std@@VEncodedAuthentication@cpr@@@std@@@2@@std@@QEAAAEAV01@AEBV01@@Z
	??4?$vector@UParameter@cpr@@V?$allocator@UParameter@cpr@@@std@@@std@@QEAAAEAV01@$$QEAV01@@Z
	??4?$vector@UParameter@cpr@@V?$allocator@UParameter@cpr@@@std@@@std@@QEAAAEAV01@AEBV01@@Z
	??4DebugCallback@cpr@@QEAAAEAV01@AEBV01@@Z
	??4HeaderCallback@cpr@@QEAAAEAV01@AEBV01@@Z
	??4Parameter@cpr@@QEAAAEAU01@AEBU01@@Z
	??4Parameters@cpr@@QEAAAEAV01@$$QEAV01@@Z
	??4Parameters@cpr@@QEAAAEAV01@AEBV01@@Z
	??4ProgressCallback@cpr@@QEAAAEAV01@AEBV01@@Z
	??4Proxies@cpr@@QEAAAEAV01@$$QEAV01@@Z
	??4Proxies@cpr@@QEAAAEAV01@AEBV01@@Z
	??4ProxyAuthentication@cpr@@QEAAAEAV01@$$QEAV01@@Z
	??4ProxyAuthentication@cpr@@QEAAAEAV01@AEBV01@@Z
	??4ReadCallback@cpr@@QEAAAEAV01@AEBV01@@Z
	??4Session@cpr@@QEAAAEAV01@$$QEAV01@@Z
	??4Url@cpr@@QEAAAEAV01@$$QEAV01@@Z
	??4Url@cpr@@QEAAAEAV01@AEBV01@@Z
	??4WriteCallback@cpr@@QEAAAEAV01@AEBV01@@Z
	??8?$_Tree_const_iterator@V?$_Tree_val@U?$_Tree_simple_types@U?$pair@$$CBV?$basic_string@DU?$char_traits@D@std@@V?$allocator@D@2@@std@@V12@@std@@@std@@@std@@@std@@QEBA_NAEBV01@@Z
	??9?$_Tree_unchecked_const_iterator@V?$_Tree_val@U?$_Tree_simple_types@U?$pair@$$CBV?$basic_string@DU?$char_traits@D@std@@V?$allocator@D@2@@std@@V12@@std@@@std@@@std@@U_Iterator_base0@2@@std@@QEBA_NU_Default_sentinel@1@@Z
	??A?$array@D$0BAA@@std@@QEAAAEAD_K@Z
	??A?$basic_string@DU?$char_traits@D@std@@V?$allocator@D@2@@std@@QEAAAEAD_K@Z
	??A?$map@V?$basic_string@DU?$char_traits@D@std@@V?$allocator@D@2@@std@@V12@U?$less@V?$basic_string@DU?$char_traits@D@std@@V?$allocator@D@2@@std@@@2@V?$allocator@U?$pair@$$CBV?$basic_string@DU?$char_traits@D@std@@V?$allocator@D@2@@std@@V12@@std@@@2@@std@@QEAAAEAV?$basic_string@DU?$char_traits@D@std@@V?$allocator@D@2@@1@AEBV21@@Z
	??A?$map@V?$basic_string@DU?$char_traits@D@std@@V?$allocator@D@2@@std@@V12@UCaseInsensitiveCompare@cpr@@V?$allocator@U?$pair@$$CBV?$basic_string@DU?$char_traits@D@std@@V?$allocator@D@2@@std@@V12@@std@@@2@@std@@QEAAAEAV?$basic_string@DU?$char_traits@D@std@@V?$allocator@D@2@@1@$$QEAV21@@Z
	??A?$map@V?$basic_string@DU?$char_traits@D@std@@V?$allocator@D@2@@std@@V12@UCaseInsensitiveCompare@cpr@@V?$allocator@U?$pair@$$CBV?$basic_string@DU?$char_traits@D@std@@V?$allocator@D@2@@std@@V12@@std@@@2@@std@@QEAAAEAV?$basic_string@DU?$char_traits@D@std@@V?$allocator@D@2@@1@AEBV21@@Z
	??A?$map@V?$basic_string@DU?$char_traits@D@std@@V?$allocator@D@2@@std@@VEncodedAuthentication@cpr@@U?$less@V?$basic_string@DU?$char_traits@D@std@@V?$allocator@D@2@@std@@@2@V?$allocator@U?$pair@$$CBV?$basic_string@DU?$char_traits@D@std@@V?$allocator@D@2@@std@@VEncodedAuthentication@cpr@@@std@@@2@@std@@QEAAAEAVEncodedAuthentication@cpr@@AEBV?$basic_string@DU?$char_traits@D@std@@V?$allocator@D@2@@1@@Z
	??A?$vector@V?$basic_string@DU?$char_traits@D@std@@V?$allocator@D@2@@std@@V?$allocator@V?$basic_string@DU?$char_traits@D@std@@V?$allocator@D@2@@std@@@2@@std@@QEAAAEAV?$basic_string@DU?$char_traits@D@std@@V?$allocator@D@2@@1@_K@Z
	??ACookies@cpr@@QEAAAEAV?$basic_string@DU?$char_traits@D@std@@V?$allocator@D@2@@std@@AEBV23@@Z
	??AProxies@cpr@@QEAAAEBV?$basic_string@DU?$char_traits@D@std@@V?$allocator@D@2@@std@@AEBV23@@Z
	??AProxyAuthentication@cpr@@QEAAPEBDAEBV?$basic_string@DU?$char_traits@D@std@@V?$allocator@D@2@@std@@@Z
	??B?$fpos@U_Mbstatet@@@std@@QEBA_JXZ
	??B?$function@$$A6A_NPEADAEA_K_J@Z@std@@QEBA_NXZ
	??B?$function@$$A6A_NV?$basic_string@DU?$char_traits@D@std@@V?$allocator@D@2@@std@@_J@Z@std@@QEBA_NXZ
	??B?$shared_ptr@UCurlHolder@cpr@@@std@@QEBA_NXZ
	??BVerifySsl@cpr@@QEBA_NXZ
	??Bsentry@?$basic_istream@DU?$char_traits@D@std@@@std@@QEBA_NXZ
	??Bsentry@?$basic_ostream@DU?$char_traits@D@std@@@std@@QEBA_NXZ
	??C?$unique_ptr@VImpl@Session@cpr@@U?$default_delete@VImpl@Session@cpr@@@std@@@std@@QEBAPEAVImpl@Session@cpr@@XZ
	??D?$_Tree_unchecked_const_iterator@V?$_Tree_val@U?$_Tree_simple_types@U?$pair@$$CBV?$basic_string@DU?$char_traits@D@std@@V?$allocator@D@2@@std@@V12@@std@@@std@@@std@@U_Iterator_base0@2@@std@@QEBAAEBU?$pair@$$CBV?$basic_string@DU?$char_traits@D@std@@V?$allocator@D@2@@std@@V12@@1@XZ
	??D?$_Tree_unchecked_iterator@V?$_Tree_val@U?$_Tree_simple_types@U?$pair@$$CBV?$basic_string@DU?$char_traits@D@std@@V?$allocator@D@2@@std@@V12@@std@@@std@@@std@@@std@@QEBAAEAU?$pair@$$CBV?$basic_string@DU?$char_traits@D@std@@V?$allocator@D@2@@std@@V12@@1@XZ
	??D?$back_insert_iterator@V?$vector@UPair@cpr@@V?$allocator@UPair@cpr@@@std@@@std@@@std@@QEAAAEAV01@XZ
	??D?$back_insert_iterator@V?$vector@UParameter@cpr@@V?$allocator@UParameter@cpr@@@std@@@std@@@std@@QEAAAEAV01@XZ
	??E?$_Tree_unchecked_const_iterator@V?$_Tree_val@U?$_Tree_simple_types@U?$pair@$$CBV?$basic_string@DU?$char_traits@D@std@@V?$allocator@D@2@@std@@V12@@std@@@std@@@std@@U_Iterator_base0@2@@std@@QEAAAEAV01@XZ
	??E?$_Tree_unchecked_iterator@V?$_Tree_val@U?$_Tree_simple_types@U?$pair@$$CBV?$basic_string@DU?$char_traits@D@std@@V?$allocator@D@2@@std@@V12@@std@@@std@@@std@@@std@@QEAAAEAV01@XZ
	??E?$back_insert_iterator@V?$vector@UPair@cpr@@V?$allocator@UPair@cpr@@@std@@@std@@@std@@QEAAAEAV01@XZ
	??E?$back_insert_iterator@V?$vector@UParameter@cpr@@V?$allocator@UParameter@cpr@@@std@@@std@@@std@@QEAAAEAV01@XZ
	??F?$_Tree_unchecked_const_iterator@V?$_Tree_val@U?$_Tree_simple_types@U?$pair@$$CBV?$basic_string@DU?$char_traits@D@std@@V?$allocator@D@2@@std@@V12@@std@@@std@@@std@@U_Iterator_base0@2@@std@@QEAAAEAV01@XZ
	??H?$StringHolder@VUrl@cpr@@@cpr@@QEBA?AVUrl@1@AEBV?$basic_string@DU?$char_traits@D@std@@V?$allocator@D@2@@std@@@Z
	??H?$StringHolder@VUrl@cpr@@@cpr@@QEBA?AVUrl@1@PEBD@Z
	??Icpr@@YA?AW4PostRedirectFlags@0@W410@0@Z
	??R<lambda_319d5e083f45f90dcdce5dce53cbb275>@@QEBA@QEADQEBD_KD@Z
	??R<lambda_4208477ec92b050ac68c36e087bc7382>@@QEBA@AEBUPair@cpr@@@Z
	??R<lambda_65e615be2a453ca0576c979606f46740>@@QEBA@QEADQEBD_K12@Z
	??R<lambda_66f57f934f28d61049862f64df852ff0>@@QEBA@QEAD_KQEBD@Z
	??R<lambda_8fe359263d7c8380db28e128f5237e27>@@QEBA@AEBUParameter@cpr@@@Z
	??R<lambda_9013ee9e23efe4882b67eff5b0ecf103>@@QEBA@QEADQEBD_K@Z
	??R<lambda_e1befb086ad3257e3f042a63030725f7>@@QEBA@QEADQEBD_K2D@Z
	??R<lambda_f3a66ab6a0570788f31503db83886f49>@@QEBA@QEADQEBD_K212@Z
	??R?$_Func_class@XW4InfoType@DebugCallback@cpr@@V?$basic_string@DU?$char_traits@D@std@@V?$allocator@D@2@@std@@_J@std@@QEBAXW4InfoType@DebugCallback@cpr@@V?$basic_string@DU?$char_traits@D@std@@V?$allocator@D@2@@1@_J@Z
	??R?$_Func_class@_NPEADAEA_K_J@std@@QEBA_NPEADAEA_K_J@Z
	??R?$_Func_class@_NV?$basic_string@DU?$char_traits@D@std@@V?$allocator@D@2@@std@@_J@std@@QEBA_NV?$basic_string@DU?$char_traits@D@std@@V?$allocator@D@2@@1@_J@Z
	??R?$_Func_class@_N_J_J_J_J_J@std@@QEBA_N_J0000@Z
	??R?$default_delete@VImpl@Session@cpr@@@std@@QEBAXPEAVImpl@Session@cpr@@@Z
	??R?$less@V?$basic_string@DU?$char_traits@D@std@@V?$allocator@D@2@@std@@@std@@QEBA_NAEBV?$basic_string@DU?$char_traits@D@std@@V?$allocator@D@2@@1@0@Z
	??RCaseInsensitiveCompare@cpr@@QEBA_NAEBV?$basic_string@DU?$char_traits@D@std@@V?$allocator@D@2@@std@@0@Z
	??RDebugCallback@cpr@@QEBAXW4InfoType@01@V?$basic_string@DU?$char_traits@D@std@@V?$allocator@D@2@@std@@@Z
	??RHeaderCallback@cpr@@QEBA_NV?$basic_string@DU?$char_traits@D@std@@V?$allocator@D@2@@std@@@Z
	??RProgressCallback@cpr@@QEBA_N_J000@Z
	??RReadCallback@cpr@@QEBA_NPEADAEA_K@Z
	??RWriteCallback@cpr@@QEBA_NV?$basic_string@DU?$char_traits@D@std@@V?$allocator@D@2@@std@@@Z
	??Scpr@@YA?AW4PostRedirectFlags@0@W410@@Z
	??Tcpr@@YA?AW4PostRedirectFlags@0@W410@0@Z
	??Ucpr@@YA?AW4PostRedirectFlags@0@W410@0@Z
	??Y?$basic_string@DU?$char_traits@D@std@@V?$allocator@D@2@@std@@QEAAAEAV01@AEBV01@@Z
	??Y?$basic_string@DU?$char_traits@D@std@@V?$allocator@D@2@@std@@QEAAAEAV01@D@Z
	??Y?$basic_string@DU?$char_traits@D@std@@V?$allocator@D@2@@std@@QEAAAEAV01@QEBD@Z
	??_4cpr@@YAAEAW4PostRedirectFlags@0@AEAW410@W410@@Z
	??_5cpr@@YAAEAW4PostRedirectFlags@0@AEAW410@W410@@Z
	??_6cpr@@YAAEAW4PostRedirectFlags@0@AEAW410@W410@@Z
	??_D?$basic_istringstream@DU?$char_traits@D@std@@V?$allocator@D@2@@std@@QEAAXXZ
	??_D?$basic_stringstream@DU?$char_traits@D@std@@V?$allocator@D@2@@std@@QEAAXXZ
	?Add@?$CurlContainer@UPair@cpr@@@cpr@@QEAAXAEBUPair@2@@Z
	?Add@?$CurlContainer@UPair@cpr@@@cpr@@QEAAXAEBV?$initializer_list@UPair@cpr@@@std@@@Z
	?Add@?$CurlContainer@UParameter@cpr@@@cpr@@QEAAXAEBUParameter@2@@Z
	?Add@?$CurlContainer@UParameter@cpr@@@cpr@@QEAAXAEBV?$initializer_list@UParameter@cpr@@@std@@@Z
	?Complete@Impl@Session@cpr@@QEAA?AVResponse@3@W4CURLcode@@@Z
	?Complete@Session@cpr@@QEAA?AVResponse@2@W4CURLcode@@@Z
	?Delete@Impl@Session@cpr@@QEAA?AVResponse@3@XZ
	?Delete@Session@cpr@@QEAA?AVResponse@2@XZ
	?Download@Impl@Session@cpr@@QEAA?AVResponse@3@AEAV?$basic_ofstream@DU?$char_traits@D@std@@@std@@@Z
	?Download@Impl@Session@cpr@@QEAA?AVResponse@3@AEBVWriteCallback@3@@Z
	?Download@Session@cpr@@QEAA?AVResponse@2@AEAV?$basic_ofstream@DU?$char_traits@D@std@@@std@@@Z
	?Download@Session@cpr@@QEAA?AVResponse@2@AEBVWriteCallback@2@@Z
	?Get@Impl@Session@cpr@@QEAA?AVResponse@3@XZ
	?Get@Session@cpr@@QEAA?AVResponse@2@XZ
	?GetAuthString@Authentication@cpr@@UEBAPEBDXZ
	?GetAuthString@EncodedAuthentication@cpr@@QEBAPEBDXZ
	?GetCertInfo@Response@cpr@@QEAA?AV?$vector@V?$basic_string@DU?$char_traits@D@std@@V?$allocator@D@2@@std@@V?$allocator@V?$basic_string@DU?$char_traits@D@std@@V?$allocator@D@2@@std@@@2@@std@@XZ
	?GetContent@?$CurlContainer@UPair@cpr@@@cpr@@QEBA?BV?$basic_string@DU?$char_traits@D@std@@V?$allocator@D@2@@std@@AEBUCurlHolder@2@@Z
	?GetContent@?$CurlContainer@UParameter@cpr@@@cpr@@QEBA?BV?$basic_string@DU?$char_traits@D@std@@V?$allocator@D@2@@std@@AEBUCurlHolder@2@@Z
	?GetCurlHolder@Impl@Session@cpr@@QEAA?AV?$shared_ptr@UCurlHolder@cpr@@@std@@XZ
	?GetCurlHolder@Session@cpr@@QEAA?AV?$shared_ptr@UCurlHolder@cpr@@@std@@XZ
	?GetDownloadFileLength@Impl@Session@cpr@@QEAA_JXZ
	?GetDownloadFileLength@Session@cpr@@QEAA_JXZ
	?GetEncoded@Cookies@cpr@@QEBA?AV?$basic_string@DU?$char_traits@D@std@@V?$allocator@D@2@@std@@AEBUCurlHolder@2@@Z
	?GetToken@Bearer@cpr@@UEBAPEBDXZ
	?GetUnixSocketString@UnixSocket@cpr@@QEBAPEBDXZ
	?Head@Impl@Session@cpr@@QEAA?AVResponse@3@XZ
	?Head@Session@cpr@@QEAA?AVResponse@2@XZ
	?Milliseconds@Timeout@cpr@@QEBAJXZ
	?Options@Impl@Session@cpr@@QEAA?AVResponse@3@XZ
	?Options@Session@cpr@@QEAA?AVResponse@2@XZ
	?Patch@Impl@Session@cpr@@QEAA?AVResponse@3@XZ
	?Patch@Session@cpr@@QEAA?AVResponse@2@XZ
	?Post@Impl@Session@cpr@@QEAA?AVResponse@3@XZ
	?Post@Session@cpr@@QEAA?AVResponse@2@XZ
	?PrepareDelete@Impl@Session@cpr@@QEAAXXZ
	?PrepareDelete@Session@cpr@@QEAAXXZ
	?PrepareGet@Impl@Session@cpr@@QEAAXXZ
	?PrepareGet@Session@cpr@@QEAAXXZ
	?PrepareHead@Impl@Session@cpr@@QEAAXXZ
	?PrepareHead@Session@cpr@@QEAAXXZ
	?PrepareOptions@Impl@Session@cpr@@QEAAXXZ
	?PrepareOptions@Session@cpr@@QEAAXXZ
	?PreparePatch@Impl@Session@cpr@@QEAAXXZ
	?PreparePatch@Session@cpr@@QEAAXXZ
	?PreparePost@Impl@Session@cpr@@QEAAXXZ
	?PreparePost@Session@cpr@@QEAAXXZ
	?PreparePut@Impl@Session@cpr@@QEAAXXZ
	?PreparePut@Session@cpr@@QEAAXXZ
	?Put@Impl@Session@cpr@@QEAA?AVResponse@3@XZ
	?Put@Session@cpr@@QEAA?AVResponse@2@XZ
	?ResponseStringReserve@Impl@Session@cpr@@QEAAX_K@Z
	?ResponseStringReserve@Session@cpr@@QEAAX_K@Z
	?SetAuth@Impl@Session@cpr@@QEAAXAEBVAuthentication@3@@Z
	?SetAuth@Session@cpr@@QEAAXAEBVAuthentication@2@@Z
	?SetBearer@Impl@Session@cpr@@QEAAXAEBVBearer@3@@Z
	?SetBody@Impl@Session@cpr@@QEAAX$$QEAVBody@3@@Z
	?SetBody@Impl@Session@cpr@@QEAAXAEBVBody@3@@Z
	?SetBody@Session@cpr@@QEAAX$$QEAVBody@2@@Z
	?SetBody@Session@cpr@@QEAAXAEBVBody@2@@Z
	?SetConnectTimeout@Impl@Session@cpr@@QEAAXAEBVConnectTimeout@3@@Z
	?SetConnectTimeout@Session@cpr@@QEAAXAEBVConnectTimeout@2@@Z
	?SetCookies@Impl@Session@cpr@@QEAAXAEBVCookies@3@@Z
	?SetCookies@Session@cpr@@QEAAXAEBVCookies@2@@Z
	?SetDebugCallback@Impl@Session@cpr@@QEAAXAEBVDebugCallback@3@@Z
	?SetDebugCallback@Session@cpr@@QEAAXAEBVDebugCallback@2@@Z
	?SetDigest@Impl@Session@cpr@@QEAAXAEBVDigest@3@@Z
	?SetDigest@Session@cpr@@QEAAXAEBVDigest@2@@Z
	?SetHeader@Impl@Session@cpr@@QEAAXAEBV?$map@V?$basic_string@DU?$char_traits@D@std@@V?$allocator@D@2@@std@@V12@UCaseInsensitiveCompare@cpr@@V?$allocator@U?$pair@$$CBV?$basic_string@DU?$char_traits@D@std@@V?$allocator@D@2@@std@@V12@@std@@@2@@std@@@Z
	?SetHeader@Session@cpr@@QEAAXAEBV?$map@V?$basic_string@DU?$char_traits@D@std@@V?$allocator@D@2@@std@@V12@UCaseInsensitiveCompare@cpr@@V?$allocator@U?$pair@$$CBV?$basic_string@DU?$char_traits@D@std@@V?$allocator@D@2@@std@@V12@@std@@@2@@std@@@Z
	?SetHeaderCallback@Impl@Session@cpr@@QEAAXAEBVHeaderCallback@3@@Z
	?SetHeaderCallback@Session@cpr@@QEAAXAEBVHeaderCallback@2@@Z
	?SetHeaderInternal@Impl@Session@cpr@@AEAAXXZ
	?SetHttpVersion@Impl@Session@cpr@@QEAAXAEBVHttpVersion@3@@Z
	?SetHttpVersion@Session@cpr@@QEAAXAEBVHttpVersion@2@@Z
	?SetInterface@Impl@Session@cpr@@QEAAXAEBVInterface@3@@Z
	?SetInterface@Session@cpr@@QEAAXAEBVInterface@2@@Z
	?SetLimitRate@Impl@Session@cpr@@QEAAXAEBVLimitRate@3@@Z
	?SetLowSpeed@Impl@Session@cpr@@QEAAXAEBVLowSpeed@3@@Z
	?SetLowSpeed@Session@cpr@@QEAAXAEBVLowSpeed@2@@Z
	?SetMultipart@Impl@Session@cpr@@QEAAX$$QEAVMultipart@3@@Z
	?SetMultipart@Impl@Session@cpr@@QEAAXAEBVMultipart@3@@Z
	?SetMultipart@Session@cpr@@QEAAX$$QEAVMultipart@2@@Z
	?SetMultipart@Session@cpr@@QEAAXAEBVMultipart@2@@Z
	?SetNTLM@Impl@Session@cpr@@QEAAXAEBVNTLM@3@@Z
	?SetNTLM@Session@cpr@@QEAAXAEBVNTLM@2@@Z
	?SetOption@Session@cpr@@QEAAX$$QEAVBody@2@@Z
	?SetOption@Session@cpr@@QEAAX$$QEAVMultipart@2@@Z
	?SetOption@Session@cpr@@QEAAX$$QEAVParameters@2@@Z
	?SetOption@Session@cpr@@QEAAX$$QEAVPayload@2@@Z
	?SetOption@Session@cpr@@QEAAX$$QEAVProxies@2@@Z
	?SetOption@Session@cpr@@QEAAX$$QEAVProxyAuthentication@2@@Z
	?SetOption@Session@cpr@@QEAAXAEBUSslOptions@2@@Z
	?SetOption@Session@cpr@@QEAAXAEBV?$map@V?$basic_string@DU?$char_traits@D@std@@V?$allocator@D@2@@std@@V12@UCaseInsensitiveCompare@cpr@@V?$allocator@U?$pair@$$CBV?$basic_string@DU?$char_traits@D@std@@V?$allocator@D@2@@std@@V12@@std@@@2@@std@@@Z
	?SetOption@Session@cpr@@QEAAXAEBVAuthentication@2@@Z
	?SetOption@Session@cpr@@QEAAXAEBVBearer@2@@Z
	?SetOption@Session@cpr@@QEAAXAEBVBody@2@@Z
	?SetOption@Session@cpr@@QEAAXAEBVConnectTimeout@2@@Z
	?SetOption@Session@cpr@@QEAAXAEBVCookies@2@@Z
	?SetOption@Session@cpr@@QEAAXAEBVDebugCallback@2@@Z
	?SetOption@Session@cpr@@QEAAXAEBVDigest@2@@Z
	?SetOption@Session@cpr@@QEAAXAEBVHeaderCallback@2@@Z
	?SetOption@Session@cpr@@QEAAXAEBVHttpVersion@2@@Z
	?SetOption@Session@cpr@@QEAAXAEBVInterface@2@@Z
	?SetOption@Session@cpr@@QEAAXAEBVLimitRate@2@@Z
	?SetOption@Session@cpr@@QEAAXAEBVLowSpeed@2@@Z
	?SetOption@Session@cpr@@QEAAXAEBVMultipart@2@@Z
	?SetOption@Session@cpr@@QEAAXAEBVNTLM@2@@Z
	?SetOption@Session@cpr@@QEAAXAEBVParameters@2@@Z
	?SetOption@Session@cpr@@QEAAXAEBVPayload@2@@Z
	?SetOption@Session@cpr@@QEAAXAEBVProgressCallback@2@@Z
	?SetOption@Session@cpr@@QEAAXAEBVProxies@2@@Z
	?SetOption@Session@cpr@@QEAAXAEBVProxyAuthentication@2@@Z
	?SetOption@Session@cpr@@QEAAXAEBVRange@2@@Z
	?SetOption@Session@cpr@@QEAAXAEBVReadCallback@2@@Z
	?SetOption@Session@cpr@@QEAAXAEBVRedirect@2@@Z
	?SetOption@Session@cpr@@QEAAXAEBVTimeout@2@@Z
	?SetOption@Session@cpr@@QEAAXAEBVUnixSocket@2@@Z
	?SetOption@Session@cpr@@QEAAXAEBVUrl@2@@Z
	?SetOption@Session@cpr@@QEAAXAEBVUserAgent@2@@Z
	?SetOption@Session@cpr@@QEAAXAEBVVerbose@2@@Z
	?SetOption@Session@cpr@@QEAAXAEBVVerifySsl@2@@Z
	?SetOption@Session@cpr@@QEAAXAEBVWriteCallback@2@@Z
	?SetParameters@Impl@Session@cpr@@QEAAX$$QEAVParameters@3@@Z
	?SetParameters@Impl@Session@cpr@@QEAAXAEBVParameters@3@@Z
	?SetParameters@Session@cpr@@QEAAX$$QEAVParameters@2@@Z
	?SetParameters@Session@cpr@@QEAAXAEBVParameters@2@@Z
	?SetPayload@Impl@Session@cpr@@QEAAX$$QEAVPayload@3@@Z
	?SetPayload@Impl@Session@cpr@@QEAAXAEBVPayload@3@@Z
	?SetPayload@Session@cpr@@QEAAX$$QEAVPayload@2@@Z
	?SetPayload@Session@cpr@@QEAAXAEBVPayload@2@@Z
	?SetProgressCallback@Impl@Session@cpr@@QEAAXAEBVProgressCallback@3@@Z
	?SetProgressCallback@Session@cpr@@QEAAXAEBVProgressCallback@2@@Z
	?SetProxies@Impl@Session@cpr@@QEAAX$$QEAVProxies@3@@Z
	?SetProxies@Impl@Session@cpr@@QEAAXAEBVProxies@3@@Z
	?SetProxies@Session@cpr@@QEAAX$$QEAVProxies@2@@Z
	?SetProxies@Session@cpr@@QEAAXAEBVProxies@2@@Z
	?SetProxyAuth@Impl@Session@cpr@@QEAAX$$QEAVProxyAuthentication@3@@Z
	?SetProxyAuth@Impl@Session@cpr@@QEAAXAEBVProxyAuthentication@3@@Z
	?SetProxyAuth@Session@cpr@@QEAAX$$QEAVProxyAuthentication@2@@Z
	?SetProxyAuth@Session@cpr@@QEAAXAEBVProxyAuthentication@2@@Z
	?SetRange@Impl@Session@cpr@@QEAAXAEBVRange@3@@Z
	?SetRange@Session@cpr@@QEAAXAEBVRange@2@@Z
	?SetReadCallback@Impl@Session@cpr@@QEAAXAEBVReadCallback@3@@Z
	?SetReadCallback@Session@cpr@@QEAAXAEBVReadCallback@2@@Z
	?SetRedirect@Impl@Session@cpr@@QEAAXAEBVRedirect@3@@Z
	?SetRedirect@Session@cpr@@QEAAXAEBVRedirect@2@@Z
	?SetSslOptions@Impl@Session@cpr@@QEAAXAEBUSslOptions@3@@Z
	?SetSslOptions@Session@cpr@@QEAAXAEBUSslOptions@2@@Z
	?SetTimeout@Impl@Session@cpr@@QEAAXAEBVTimeout@3@@Z
	?SetTimeout@Session@cpr@@QEAAXAEBVTimeout@2@@Z
	?SetUnixSocket@Impl@Session@cpr@@QEAAXAEBVUnixSocket@3@@Z
	?SetUnixSocket@Session@cpr@@QEAAXAEBVUnixSocket@2@@Z
	?SetUrl@Impl@Session@cpr@@QEAAXAEBVUrl@3@@Z
	?SetUrl@Session@cpr@@QEAAXAEBVUrl@2@@Z
	?SetUserAgent@Impl@Session@cpr@@QEAAXAEBVUserAgent@3@@Z
	?SetUserAgent@Session@cpr@@QEAAXAEBVUserAgent@2@@Z
	?SetVerbose@Impl@Session@cpr@@QEAAXAEBVVerbose@3@@Z
	?SetVerbose@Session@cpr@@QEAAXAEBVVerbose@2@@Z
	?SetVerifySsl@Impl@Session@cpr@@QEAAXAEBVVerifySsl@3@@Z
	?SetVerifySsl@Session@cpr@@QEAAXAEBVVerifySsl@2@@Z
	?SetWriteCallback@Impl@Session@cpr@@QEAAXAEBVWriteCallback@3@@Z
	?SetWriteCallback@Session@cpr@@QEAAXAEBVWriteCallback@2@@Z
	?UpdateHeader@Impl@Session@cpr@@QEAAXAEBV?$map@V?$basic_string@DU?$char_traits@D@std@@V?$allocator@D@2@@std@@V12@UCaseInsensitiveCompare@cpr@@V?$allocator@U?$pair@$$CBV?$basic_string@DU?$char_traits@D@std@@V?$allocator@D@2@@std@@V12@@std@@@2@@std@@@Z
	?UpdateHeader@Session@cpr@@QEAAXAEBV?$map@V?$basic_string@DU?$char_traits@D@std@@V?$allocator@D@2@@std@@V12@UCaseInsensitiveCompare@cpr@@V?$allocator@U?$pair@$$CBV?$basic_string@DU?$char_traits@D@std@@V?$allocator@D@2@@std@@V12@@std@@@2@@std@@@Z
	?_Activate_SSO_buffer@?$_String_val@U?$_Simple_types@D@std@@@std@@QEAAXXZ
	?_Adjust_manually_vector_aligned@std@@YAXAEAPEAXAEA_K@Z
	?_Adopt@_Iterator_base0@std@@QEAAXPEBX@Z
	?_Adopt@_Iterator_base12@std@@QEAAXPEBU_Container_base12@2@@Z
	?_Adopt_locked@_Iterator_base12@std@@AEAAXPEBU_Container_base12@2@@Z
	?_Adopt_unlocked@_Iterator_base12@std@@AEAAXPEBU_Container_base12@2@@Z
	?_Alloc_sentinel_and_proxy@?$_Tree@V?$_Tmap_traits@V?$basic_string@DU?$char_traits@D@std@@V?$allocator@D@2@@std@@V12@U?$less@V?$basic_string@DU?$char_traits@D@std@@V?$allocator@D@2@@std@@@2@V?$allocator@U?$pair@$$CBV?$basic_string@DU?$char_traits@D@std@@V?$allocator@D@2@@std@@V12@@std@@@2@$0A@@std@@@std@@IEAAXXZ
	?_Alloc_sentinel_and_proxy@?$_Tree@V?$_Tmap_traits@V?$basic_string@DU?$char_traits@D@std@@V?$allocator@D@2@@std@@V12@UCaseInsensitiveCompare@cpr@@V?$allocator@U?$pair@$$CBV?$basic_string@DU?$char_traits@D@std@@V?$allocator@D@2@@std@@V12@@std@@@2@$0A@@std@@@std@@IEAAXXZ
	?_Alloc_sentinel_and_proxy@?$_Tree@V?$_Tmap_traits@V?$basic_string@DU?$char_traits@D@std@@V?$allocator@D@2@@std@@VEncodedAuthentication@cpr@@U?$less@V?$basic_string@DU?$char_traits@D@std@@V?$allocator@D@2@@std@@@2@V?$allocator@U?$pair@$$CBV?$basic_string@DU?$char_traits@D@std@@V?$allocator@D@2@@std@@VEncodedAuthentication@cpr@@@std@@@2@$0A@@std@@@std@@IEAAXXZ
	?_Allocate@?$_Alloc_construct_ptr@V?$allocator@U?$_Tree_node@U?$pair@$$CBV?$basic_string@DU?$char_traits@D@std@@V?$allocator@D@2@@std@@V12@@std@@PEAX@std@@@std@@@std@@QEAAXXZ
	?_Allocate@?$_Alloc_construct_ptr@V?$allocator@U?$_Tree_node@U?$pair@$$CBV?$basic_string@DU?$char_traits@D@std@@V?$allocator@D@2@@std@@VEncodedAuthentication@cpr@@@std@@PEAX@std@@@std@@@std@@QEAAXXZ
	?_Allocate@_Default_allocate_traits@std@@SAPEAX_K@Z
	?_Become_small@?$basic_string@DU?$char_traits@D@std@@V?$allocator@D@2@@std@@AEAAXXZ
	?_Buy_nonzero@?$vector@UPair@cpr@@V?$allocator@UPair@cpr@@@std@@@std@@AEAAX_K@Z
	?_Buy_nonzero@?$vector@UParameter@cpr@@V?$allocator@UParameter@cpr@@@std@@@std@@AEAAX_K@Z
	?_Buy_nonzero@?$vector@UPart@cpr@@V?$allocator@UPart@cpr@@@std@@@std@@AEAAX_K@Z
	?_Buy_raw@?$vector@UPair@cpr@@V?$allocator@UPair@cpr@@@std@@@std@@AEAAX_K@Z
	?_Buy_raw@?$vector@UParameter@cpr@@V?$allocator@UParameter@cpr@@@std@@@std@@AEAAX_K@Z
	?_Buy_raw@?$vector@UPart@cpr@@V?$allocator@UPart@cpr@@@std@@@std@@AEAAX_K@Z
	?_Calculate_growth@?$basic_string@DU?$char_traits@D@std@@V?$allocator@D@2@@std@@AEBA_K_K@Z
	?_Calculate_growth@?$basic_string@DU?$char_traits@D@std@@V?$allocator@D@2@@std@@CA_K_K00@Z
	?_Calculate_growth@?$vector@UPair@cpr@@V?$allocator@UPair@cpr@@@std@@@std@@AEBA_K_K@Z
	?_Calculate_growth@?$vector@UParameter@cpr@@V?$allocator@UParameter@cpr@@@std@@@std@@AEBA_K_K@Z
	?_Calculate_growth@?$vector@Ucurl_forms@@V?$allocator@Ucurl_forms@@@std@@@std@@AEBA_K_K@Z
	?_Calculate_growth@?$vector@V?$basic_string@DU?$char_traits@D@std@@V?$allocator@D@2@@std@@V?$allocator@V?$basic_string@DU?$char_traits@D@std@@V?$allocator@D@2@@std@@@2@@std@@AEBA_K_K@Z
	?_Change_array@?$vector@UPair@cpr@@V?$allocator@UPair@cpr@@@std@@@std@@AEAAXQEAUPair@cpr@@_K1@Z
	?_Change_array@?$vector@UParameter@cpr@@V?$allocator@UParameter@cpr@@@std@@@std@@AEAAXQEAUParameter@cpr@@_K1@Z
	?_Change_array@?$vector@Ucurl_forms@@V?$allocator@Ucurl_forms@@@std@@@std@@AEAAXQEAUcurl_forms@@_K1@Z
	?_Change_array@?$vector@V?$basic_string@DU?$char_traits@D@std@@V?$allocator@D@2@@std@@V?$allocator@V?$basic_string@DU?$char_traits@D@std@@V?$allocator@D@2@@std@@@2@@std@@AEAAXQEAV?$basic_string@DU?$char_traits@D@std@@V?$allocator@D@2@@2@_K1@Z
	?_Check_grow_by_1@?$_Tree@V?$_Tmap_traits@V?$basic_string@DU?$char_traits@D@std@@V?$allocator@D@2@@std@@V12@U?$less@V?$basic_string@DU?$char_traits@D@std@@V?$allocator@D@2@@std@@@2@V?$allocator@U?$pair@$$CBV?$basic_string@DU?$char_traits@D@std@@V?$allocator@D@2@@std@@V12@@std@@@2@$0A@@std@@@std@@IEAAXXZ
	?_Check_grow_by_1@?$_Tree@V?$_Tmap_traits@V?$basic_string@DU?$char_traits@D@std@@V?$allocator@D@2@@std@@V12@UCaseInsensitiveCompare@cpr@@V?$allocator@U?$pair@$$CBV?$basic_string@DU?$char_traits@D@std@@V?$allocator@D@2@@std@@V12@@std@@@2@$0A@@std@@@std@@IEAAXXZ
	?_Check_grow_by_1@?$_Tree@V?$_Tmap_traits@V?$basic_string@DU?$char_traits@D@std@@V?$allocator@D@2@@std@@VEncodedAuthentication@cpr@@U?$less@V?$basic_string@DU?$char_traits@D@std@@V?$allocator@D@2@@std@@@2@V?$allocator@U?$pair@$$CBV?$basic_string@DU?$char_traits@D@std@@V?$allocator@D@2@@std@@VEncodedAuthentication@cpr@@@std@@@2@$0A@@std@@@std@@IEAAXXZ
	?_Check_offset@?$_String_val@U?$_Simple_types@D@std@@@std@@QEBAX_K@Z
	?_Clamp_suffix_size@?$_String_val@U?$_Simple_types@D@std@@@std@@QEBA_K_K0@Z
	?_Clear_and_reserve_geometric@?$vector@UParameter@cpr@@V?$allocator@UParameter@cpr@@@std@@@std@@AEAAX_K@Z
	?_Construct_empty@?$basic_string@DU?$char_traits@D@std@@V?$allocator@D@2@@std@@AEAAXXZ
	?_Deallocate_for_capacity@?$basic_string@DU?$char_traits@D@std@@V?$allocator@D@2@@std@@CAXAEAV?$allocator@D@2@QEAD_K@Z
	?_Decref@?$_Ptr_base@UCurlHolder@cpr@@@std@@IEAAXXZ
	?_Decref@_Ref_count_base@std@@QEAAXXZ
	?_Decwref@_Ref_count_base@std@@QEAAXXZ
	?_Delete_this@?$_Ref_count@UCurlHolder@cpr@@@std@@EEAAXXZ
	?_Destroy@?$_Ref_count@UCurlHolder@cpr@@@std@@EEAAXXZ
	?_Empty@?$_Func_class@XW4InfoType@DebugCallback@cpr@@V?$basic_string@DU?$char_traits@D@std@@V?$allocator@D@2@@std@@_J@std@@IEBA_NXZ
	?_Empty@?$_Func_class@_NPEADAEA_K_J@std@@IEBA_NXZ
	?_Empty@?$_Func_class@_NV?$basic_string@DU?$char_traits@D@std@@V?$allocator@D@2@@std@@_J@std@@IEBA_NXZ
	?_Empty@?$_Func_class@_N_J_J_J_J_J@std@@IEBA_NXZ
	?_Eos@?$basic_string@DU?$char_traits@D@std@@V?$allocator@D@2@@std@@AEAAX_K@Z
	?_Equal@?$basic_string@DU?$char_traits@D@std@@V?$allocator@D@2@@std@@QEBA_NQEBD@Z
	?_Erase_noexcept@?$basic_string@DU?$char_traits@D@std@@V?$allocator@D@2@@std@@AEAAAEAV12@_K_K@Z
	?_Extract@?$_In_place_key_extract_map@V?$basic_string@DU?$char_traits@D@std@@V?$allocator@D@2@@std@@U?$pair@$$CBV?$basic_string@DU?$char_traits@D@std@@V?$allocator@D@2@@std@@V12@@2@@std@@SAAEBV?$basic_string@DU?$char_traits@D@std@@V?$allocator@D@2@@2@AEBU?$pair@$$CBV?$basic_string@DU?$char_traits@D@std@@V?$allocator@D@2@@std@@V12@@2@@Z
	?_Get_buffer_view@?$basic_stringbuf@DU?$char_traits@D@std@@V?$allocator@D@2@@std@@QEBA?AU_Buffer_view@12@XZ
	?_Get_deleter@_Ref_count_base@std@@UEBAPEAXAEBVtype_info@@@Z
	?_Get_first@?$_Compressed_pair@U?$default_delete@VImpl@Session@cpr@@@std@@PEAVImpl@Session@cpr@@$00@std@@QEAAAEAU?$default_delete@VImpl@Session@cpr@@@2@XZ
	?_Get_first@?$_Compressed_pair@U?$less@V?$basic_string@DU?$char_traits@D@std@@V?$allocator@D@2@@std@@@std@@V?$_Compressed_pair@V?$allocator@U?$_Tree_node@U?$pair@$$CBV?$basic_string@DU?$char_traits@D@std@@V?$allocator@D@2@@std@@V12@@std@@PEAX@std@@@std@@V?$_Tree_val@U?$_Tree_simple_types@U?$pair@$$CBV?$basic_string@DU?$char_traits@D@std@@V?$allocator@D@2@@std@@V12@@std@@@std@@@2@$00@2@$00@std@@QEAAAEAU?$less@V?$basic_string@DU?$char_traits@D@std@@V?$allocator@D@2@@std@@@2@XZ
	?_Get_first@?$_Compressed_pair@U?$less@V?$basic_string@DU?$char_traits@D@std@@V?$allocator@D@2@@std@@@std@@V?$_Compressed_pair@V?$allocator@U?$_Tree_node@U?$pair@$$CBV?$basic_string@DU?$char_traits@D@std@@V?$allocator@D@2@@std@@V12@@std@@PEAX@std@@@std@@V?$_Tree_val@U?$_Tree_simple_types@U?$pair@$$CBV?$basic_string@DU?$char_traits@D@std@@V?$allocator@D@2@@std@@V12@@std@@@std@@@2@$00@2@$00@std@@QEBAAEBU?$less@V?$basic_string@DU?$char_traits@D@std@@V?$allocator@D@2@@std@@@2@XZ
	?_Get_first@?$_Compressed_pair@U?$less@V?$basic_string@DU?$char_traits@D@std@@V?$allocator@D@2@@std@@@std@@V?$_Compressed_pair@V?$allocator@U?$_Tree_node@U?$pair@$$CBV?$basic_string@DU?$char_traits@D@std@@V?$allocator@D@2@@std@@VEncodedAuthentication@cpr@@@std@@PEAX@std@@@std@@V?$_Tree_val@U?$_Tree_simple_types@U?$pair@$$CBV?$basic_string@DU?$char_traits@D@std@@V?$allocator@D@2@@std@@VEncodedAuthentication@cpr@@@std@@@std@@@2@$00@2@$00@std@@QEAAAEAU?$less@V?$basic_string@DU?$char_traits@D@std@@V?$allocator@D@2@@std@@@2@XZ
	?_Get_first@?$_Compressed_pair@U?$less@V?$basic_string@DU?$char_traits@D@std@@V?$allocator@D@2@@std@@@std@@V?$_Compressed_pair@V?$allocator@U?$_Tree_node@U?$pair@$$CBV?$basic_string@DU?$char_traits@D@std@@V?$allocator@D@2@@std@@VEncodedAuthentication@cpr@@@std@@PEAX@std@@@std@@V?$_Tree_val@U?$_Tree_simple_types@U?$pair@$$CBV?$basic_string@DU?$char_traits@D@std@@V?$allocator@D@2@@std@@VEncodedAuthentication@cpr@@@std@@@std@@@2@$00@2@$00@std@@QEBAAEBU?$less@V?$basic_string@DU?$char_traits@D@std@@V?$allocator@D@2@@std@@@2@XZ
	?_Get_first@?$_Compressed_pair@UCaseInsensitiveCompare@cpr@@V?$_Compressed_pair@V?$allocator@U?$_Tree_node@U?$pair@$$CBV?$basic_string@DU?$char_traits@D@std@@V?$allocator@D@2@@std@@V12@@std@@PEAX@std@@@std@@V?$_Tree_val@U?$_Tree_simple_types@U?$pair@$$CBV?$basic_string@DU?$char_traits@D@std@@V?$allocator@D@2@@std@@V12@@std@@@std@@@2@$00@std@@$00@std@@QEAAAEAUCaseInsensitiveCompare@cpr@@XZ
	?_Get_first@?$_Compressed_pair@UCaseInsensitiveCompare@cpr@@V?$_Compressed_pair@V?$allocator@U?$_Tree_node@U?$pair@$$CBV?$basic_string@DU?$char_traits@D@std@@V?$allocator@D@2@@std@@V12@@std@@PEAX@std@@@std@@V?$_Tree_val@U?$_Tree_simple_types@U?$pair@$$CBV?$basic_string@DU?$char_traits@D@std@@V?$allocator@D@2@@std@@V12@@std@@@std@@@2@$00@std@@$00@std@@QEBAAEBUCaseInsensitiveCompare@cpr@@XZ
	?_Get_first@?$_Compressed_pair@V?$allocator@D@std@@V?$_String_val@U?$_Simple_types@D@std@@@2@$00@std@@QEAAAEAV?$allocator@D@2@XZ
	?_Get_first@?$_Compressed_pair@V?$allocator@D@std@@V?$_String_val@U?$_Simple_types@D@std@@@2@$00@std@@QEBAAEBV?$allocator@D@2@XZ
	?_Get_first@?$_Compressed_pair@V?$allocator@U?$_Tree_node@U?$pair@$$CBV?$basic_string@DU?$char_traits@D@std@@V?$allocator@D@2@@std@@V12@@std@@PEAX@std@@@std@@V?$_Tree_val@U?$_Tree_simple_types@U?$pair@$$CBV?$basic_string@DU?$char_traits@D@std@@V?$allocator@D@2@@std@@V12@@std@@@std@@@2@$00@std@@QEAAAEAV?$allocator@U?$_Tree_node@U?$pair@$$CBV?$basic_string@DU?$char_traits@D@std@@V?$allocator@D@2@@std@@V12@@std@@PEAX@std@@@2@XZ
	?_Get_first@?$_Compressed_pair@V?$allocator@U?$_Tree_node@U?$pair@$$CBV?$basic_string@DU?$char_traits@D@std@@V?$allocator@D@2@@std@@V12@@std@@PEAX@std@@@std@@V?$_Tree_val@U?$_Tree_simple_types@U?$pair@$$CBV?$basic_string@DU?$char_traits@D@std@@V?$allocator@D@2@@std@@V12@@std@@@std@@@2@$00@std@@QEBAAEBV?$allocator@U?$_Tree_node@U?$pair@$$CBV?$basic_string@DU?$char_traits@D@std@@V?$allocator@D@2@@std@@V12@@std@@PEAX@std@@@2@XZ
	?_Get_first@?$_Compressed_pair@V?$allocator@U?$_Tree_node@U?$pair@$$CBV?$basic_string@DU?$char_traits@D@std@@V?$allocator@D@2@@std@@VEncodedAuthentication@cpr@@@std@@PEAX@std@@@std@@V?$_Tree_val@U?$_Tree_simple_types@U?$pair@$$CBV?$basic_string@DU?$char_traits@D@std@@V?$allocator@D@2@@std@@VEncodedAuthentication@cpr@@@std@@@std@@@2@$00@std@@QEAAAEAV?$allocator@U?$_Tree_node@U?$pair@$$CBV?$basic_string@DU?$char_traits@D@std@@V?$allocator@D@2@@std@@VEncodedAuthentication@cpr@@@std@@PEAX@std@@@2@XZ
	?_Get_first@?$_Compressed_pair@V?$allocator@U?$_Tree_node@U?$pair@$$CBV?$basic_string@DU?$char_traits@D@std@@V?$allocator@D@2@@std@@VEncodedAuthentication@cpr@@@std@@PEAX@std@@@std@@V?$_Tree_val@U?$_Tree_simple_types@U?$pair@$$CBV?$basic_string@DU?$char_traits@D@std@@V?$allocator@D@2@@std@@VEncodedAuthentication@cpr@@@std@@@std@@@2@$00@std@@QEBAAEBV?$allocator@U?$_Tree_node@U?$pair@$$CBV?$basic_string@DU?$char_traits@D@std@@V?$allocator@D@2@@std@@VEncodedAuthentication@cpr@@@std@@PEAX@std@@@2@XZ
	?_Get_first@?$_Compressed_pair@V?$allocator@UPair@cpr@@@std@@V?$_Vector_val@U?$_Simple_types@UPair@cpr@@@std@@@2@$00@std@@QEAAAEAV?$allocator@UPair@cpr@@@2@XZ
	?_Get_first@?$_Compressed_pair@V?$allocator@UPair@cpr@@@std@@V?$_Vector_val@U?$_Simple_types@UPair@cpr@@@std@@@2@$00@std@@QEBAAEBV?$allocator@UPair@cpr@@@2@XZ
	?_Get_first@?$_Compressed_pair@V?$allocator@UParameter@cpr@@@std@@V?$_Vector_val@U?$_Simple_types@UParameter@cpr@@@std@@@2@$00@std@@QEAAAEAV?$allocator@UParameter@cpr@@@2@XZ
	?_Get_first@?$_Compressed_pair@V?$allocator@UParameter@cpr@@@std@@V?$_Vector_val@U?$_Simple_types@UParameter@cpr@@@std@@@2@$00@std@@QEBAAEBV?$allocator@UParameter@cpr@@@2@XZ
	?_Get_first@?$_Compressed_pair@V?$allocator@UPart@cpr@@@std@@V?$_Vector_val@U?$_Simple_types@UPart@cpr@@@std@@@2@$00@std@@QEAAAEAV?$allocator@UPart@cpr@@@2@XZ
	?_Get_first@?$_Compressed_pair@V?$allocator@UPart@cpr@@@std@@V?$_Vector_val@U?$_Simple_types@UPart@cpr@@@std@@@2@$00@std@@QEBAAEBV?$allocator@UPart@cpr@@@2@XZ
	?_Get_first@?$_Compressed_pair@V?$allocator@Ucurl_forms@@@std@@V?$_Vector_val@U?$_Simple_types@Ucurl_forms@@@std@@@2@$00@std@@QEAAAEAV?$allocator@Ucurl_forms@@@2@XZ
	?_Get_first@?$_Compressed_pair@V?$allocator@Ucurl_forms@@@std@@V?$_Vector_val@U?$_Simple_types@Ucurl_forms@@@std@@@2@$00@std@@QEBAAEBV?$allocator@Ucurl_forms@@@2@XZ
	?_Get_first@?$_Compressed_pair@V?$allocator@V?$basic_string@DU?$char_traits@D@std@@V?$allocator@D@2@@std@@@std@@V?$_Vector_val@U?$_Simple_types@V?$basic_string@DU?$char_traits@D@std@@V?$allocator@D@2@@std@@@std@@@2@$00@std@@QEAAAEAV?$allocator@V?$basic_string@DU?$char_traits@D@std@@V?$allocator@D@2@@std@@@2@XZ
	?_Get_first@?$_Compressed_pair@V?$allocator@V?$basic_string@DU?$char_traits@D@std@@V?$allocator@D@2@@std@@@std@@V?$_Vector_val@U?$_Simple_types@V?$basic_string@DU?$char_traits@D@std@@V?$allocator@D@2@@std@@@std@@@2@$00@std@@QEBAAEBV?$allocator@V?$basic_string@DU?$char_traits@D@std@@V?$allocator@D@2@@std@@@2@XZ
	?_Get_scary@?$_Tree@V?$_Tmap_traits@V?$basic_string@DU?$char_traits@D@std@@V?$allocator@D@2@@std@@V12@U?$less@V?$basic_string@DU?$char_traits@D@std@@V?$allocator@D@2@@std@@@2@V?$allocator@U?$pair@$$CBV?$basic_string@DU?$char_traits@D@std@@V?$allocator@D@2@@std@@V12@@std@@@2@$0A@@std@@@std@@IEAAPEAV?$_Tree_val@U?$_Tree_simple_types@U?$pair@$$CBV?$basic_string@DU?$char_traits@D@std@@V?$allocator@D@2@@std@@V12@@std@@@std@@@2@XZ
	?_Get_scary@?$_Tree@V?$_Tmap_traits@V?$basic_string@DU?$char_traits@D@std@@V?$allocator@D@2@@std@@V12@U?$less@V?$basic_string@DU?$char_traits@D@std@@V?$allocator@D@2@@std@@@2@V?$allocator@U?$pair@$$CBV?$basic_string@DU?$char_traits@D@std@@V?$allocator@D@2@@std@@V12@@std@@@2@$0A@@std@@@std@@IEBAPEBV?$_Tree_val@U?$_Tree_simple_types@U?$pair@$$CBV?$basic_string@DU?$char_traits@D@std@@V?$allocator@D@2@@std@@V12@@std@@@std@@@2@XZ
	?_Get_scary@?$_Tree@V?$_Tmap_traits@V?$basic_string@DU?$char_traits@D@std@@V?$allocator@D@2@@std@@V12@UCaseInsensitiveCompare@cpr@@V?$allocator@U?$pair@$$CBV?$basic_string@DU?$char_traits@D@std@@V?$allocator@D@2@@std@@V12@@std@@@2@$0A@@std@@@std@@IEAAPEAV?$_Tree_val@U?$_Tree_simple_types@U?$pair@$$CBV?$basic_string@DU?$char_traits@D@std@@V?$allocator@D@2@@std@@V12@@std@@@std@@@2@XZ
	?_Get_scary@?$_Tree@V?$_Tmap_traits@V?$basic_string@DU?$char_traits@D@std@@V?$allocator@D@2@@std@@V12@UCaseInsensitiveCompare@cpr@@V?$allocator@U?$pair@$$CBV?$basic_string@DU?$char_traits@D@std@@V?$allocator@D@2@@std@@V12@@std@@@2@$0A@@std@@@std@@IEBAPEBV?$_Tree_val@U?$_Tree_simple_types@U?$pair@$$CBV?$basic_string@DU?$char_traits@D@std@@V?$allocator@D@2@@std@@V12@@std@@@std@@@2@XZ
	?_Get_scary@?$_Tree@V?$_Tmap_traits@V?$basic_string@DU?$char_traits@D@std@@V?$allocator@D@2@@std@@VEncodedAuthentication@cpr@@U?$less@V?$basic_string@DU?$char_traits@D@std@@V?$allocator@D@2@@std@@@2@V?$allocator@U?$pair@$$CBV?$basic_string@DU?$char_traits@D@std@@V?$allocator@D@2@@std@@VEncodedAuthentication@cpr@@@std@@@2@$0A@@std@@@std@@IEAAPEAV?$_Tree_val@U?$_Tree_simple_types@U?$pair@$$CBV?$basic_string@DU?$char_traits@D@std@@V?$allocator@D@2@@std@@VEncodedAuthentication@cpr@@@std@@@std@@@2@XZ
	?_Get_scary@?$_Tree@V?$_Tmap_traits@V?$basic_string@DU?$char_traits@D@std@@V?$allocator@D@2@@std@@VEncodedAuthentication@cpr@@U?$less@V?$basic_string@DU?$char_traits@D@std@@V?$allocator@D@2@@std@@@2@V?$allocator@U?$pair@$$CBV?$basic_string@DU?$char_traits@D@std@@V?$allocator@D@2@@std@@VEncodedAuthentication@cpr@@@std@@@2@$0A@@std@@@std@@IEBAPEBV?$_Tree_val@U?$_Tree_simple_types@U?$pair@$$CBV?$basic_string@DU?$char_traits@D@std@@V?$allocator@D@2@@std@@VEncodedAuthentication@cpr@@@std@@@std@@@2@XZ
	?_Getal@?$_Tree@V?$_Tmap_traits@V?$basic_string@DU?$char_traits@D@std@@V?$allocator@D@2@@std@@V12@U?$less@V?$basic_string@DU?$char_traits@D@std@@V?$allocator@D@2@@std@@@2@V?$allocator@U?$pair@$$CBV?$basic_string@DU?$char_traits@D@std@@V?$allocator@D@2@@std@@V12@@std@@@2@$0A@@std@@@std@@IEAAAEAV?$allocator@U?$_Tree_node@U?$pair@$$CBV?$basic_string@DU?$char_traits@D@std@@V?$allocator@D@2@@std@@V12@@std@@PEAX@std@@@2@XZ
	?_Getal@?$_Tree@V?$_Tmap_traits@V?$basic_string@DU?$char_traits@D@std@@V?$allocator@D@2@@std@@V12@U?$less@V?$basic_string@DU?$char_traits@D@std@@V?$allocator@D@2@@std@@@2@V?$allocator@U?$pair@$$CBV?$basic_string@DU?$char_traits@D@std@@V?$allocator@D@2@@std@@V12@@std@@@2@$0A@@std@@@std@@IEBAAEBV?$allocator@U?$_Tree_node@U?$pair@$$CBV?$basic_string@DU?$char_traits@D@std@@V?$allocator@D@2@@std@@V12@@std@@PEAX@std@@@2@XZ
	?_Getal@?$_Tree@V?$_Tmap_traits@V?$basic_string@DU?$char_traits@D@std@@V?$allocator@D@2@@std@@V12@UCaseInsensitiveCompare@cpr@@V?$allocator@U?$pair@$$CBV?$basic_string@DU?$char_traits@D@std@@V?$allocator@D@2@@std@@V12@@std@@@2@$0A@@std@@@std@@IEAAAEAV?$allocator@U?$_Tree_node@U?$pair@$$CBV?$basic_string@DU?$char_traits@D@std@@V?$allocator@D@2@@std@@V12@@std@@PEAX@std@@@2@XZ
	?_Getal@?$_Tree@V?$_Tmap_traits@V?$basic_string@DU?$char_traits@D@std@@V?$allocator@D@2@@std@@V12@UCaseInsensitiveCompare@cpr@@V?$allocator@U?$pair@$$CBV?$basic_string@DU?$char_traits@D@std@@V?$allocator@D@2@@std@@V12@@std@@@2@$0A@@std@@@std@@IEBAAEBV?$allocator@U?$_Tree_node@U?$pair@$$CBV?$basic_string@DU?$char_traits@D@std@@V?$allocator@D@2@@std@@V12@@std@@PEAX@std@@@2@XZ
	?_Getal@?$_Tree@V?$_Tmap_traits@V?$basic_string@DU?$char_traits@D@std@@V?$allocator@D@2@@std@@VEncodedAuthentication@cpr@@U?$less@V?$basic_string@DU?$char_traits@D@std@@V?$allocator@D@2@@std@@@2@V?$allocator@U?$pair@$$CBV?$basic_string@DU?$char_traits@D@std@@V?$allocator@D@2@@std@@VEncodedAuthentication@cpr@@@std@@@2@$0A@@std@@@std@@IEAAAEAV?$allocator@U?$_Tree_node@U?$pair@$$CBV?$basic_string@DU?$char_traits@D@std@@V?$allocator@D@2@@std@@VEncodedAuthentication@cpr@@@std@@PEAX@std@@@2@XZ
	?_Getal@?$_Tree@V?$_Tmap_traits@V?$basic_string@DU?$char_traits@D@std@@V?$allocator@D@2@@std@@VEncodedAuthentication@cpr@@U?$less@V?$basic_string@DU?$char_traits@D@std@@V?$allocator@D@2@@std@@@2@V?$allocator@U?$pair@$$CBV?$basic_string@DU?$char_traits@D@std@@V?$allocator@D@2@@std@@VEncodedAuthentication@cpr@@@std@@@2@$0A@@std@@@std@@IEBAAEBV?$allocator@U?$_Tree_node@U?$pair@$$CBV?$basic_string@DU?$char_traits@D@std@@V?$allocator@D@2@@std@@VEncodedAuthentication@cpr@@@std@@PEAX@std@@@2@XZ
	?_Getal@?$basic_string@DU?$char_traits@D@std@@V?$allocator@D@2@@std@@AEAAAEAV?$allocator@D@2@XZ
	?_Getal@?$basic_string@DU?$char_traits@D@std@@V?$allocator@D@2@@std@@AEBAAEBV?$allocator@D@2@XZ
	?_Getal@?$vector@UPair@cpr@@V?$allocator@UPair@cpr@@@std@@@std@@AEAAAEAV?$allocator@UPair@cpr@@@2@XZ
	?_Getal@?$vector@UPair@cpr@@V?$allocator@UPair@cpr@@@std@@@std@@AEBAAEBV?$allocator@UPair@cpr@@@2@XZ
	?_Getal@?$vector@UParameter@cpr@@V?$allocator@UParameter@cpr@@@std@@@std@@AEAAAEAV?$allocator@UParameter@cpr@@@2@XZ
	?_Getal@?$vector@UParameter@cpr@@V?$allocator@UParameter@cpr@@@std@@@std@@AEBAAEBV?$allocator@UParameter@cpr@@@2@XZ
	?_Getal@?$vector@UPart@cpr@@V?$allocator@UPart@cpr@@@std@@@std@@AEAAAEAV?$allocator@UPart@cpr@@@2@XZ
	?_Getal@?$vector@UPart@cpr@@V?$allocator@UPart@cpr@@@std@@@std@@AEBAAEBV?$allocator@UPart@cpr@@@2@XZ
	?_Getal@?$vector@Ucurl_forms@@V?$allocator@Ucurl_forms@@@std@@@std@@AEAAAEAV?$allocator@Ucurl_forms@@@2@XZ
	?_Getal@?$vector@Ucurl_forms@@V?$allocator@Ucurl_forms@@@std@@@std@@AEBAAEBV?$allocator@Ucurl_forms@@@2@XZ
	?_Getal@?$vector@V?$basic_string@DU?$char_traits@D@std@@V?$allocator@D@2@@std@@V?$allocator@V?$basic_string@DU?$char_traits@D@std@@V?$allocator@D@2@@std@@@2@@std@@AEAAAEAV?$allocator@V?$basic_string@DU?$char_traits@D@std@@V?$allocator@D@2@@std@@@2@XZ
	?_Getal@?$vector@V?$basic_string@DU?$char_traits@D@std@@V?$allocator@D@2@@std@@V?$allocator@V?$basic_string@DU?$char_traits@D@std@@V?$allocator@D@2@@std@@@2@@std@@AEBAAEBV?$allocator@V?$basic_string@DU?$char_traits@D@std@@V?$allocator@D@2@@std@@@2@XZ
	?_Getcomp@?$_Tree@V?$_Tmap_traits@V?$basic_string@DU?$char_traits@D@std@@V?$allocator@D@2@@std@@V12@U?$less@V?$basic_string@DU?$char_traits@D@std@@V?$allocator@D@2@@std@@@2@V?$allocator@U?$pair@$$CBV?$basic_string@DU?$char_traits@D@std@@V?$allocator@D@2@@std@@V12@@std@@@2@$0A@@std@@@std@@IEAAAEAU?$less@V?$basic_string@DU?$char_traits@D@std@@V?$allocator@D@2@@std@@@2@XZ
	?_Getcomp@?$_Tree@V?$_Tmap_traits@V?$basic_string@DU?$char_traits@D@std@@V?$allocator@D@2@@std@@V12@U?$less@V?$basic_string@DU?$char_traits@D@std@@V?$allocator@D@2@@std@@@2@V?$allocator@U?$pair@$$CBV?$basic_string@DU?$char_traits@D@std@@V?$allocator@D@2@@std@@V12@@std@@@2@$0A@@std@@@std@@IEBAAEBU?$less@V?$basic_string@DU?$char_traits@D@std@@V?$allocator@D@2@@std@@@2@XZ
	?_Getcomp@?$_Tree@V?$_Tmap_traits@V?$basic_string@DU?$char_traits@D@std@@V?$allocator@D@2@@std@@V12@UCaseInsensitiveCompare@cpr@@V?$allocator@U?$pair@$$CBV?$basic_string@DU?$char_traits@D@std@@V?$allocator@D@2@@std@@V12@@std@@@2@$0A@@std@@@std@@IEAAAEAUCaseInsensitiveCompare@cpr@@XZ
	?_Getcomp@?$_Tree@V?$_Tmap_traits@V?$basic_string@DU?$char_traits@D@std@@V?$allocator@D@2@@std@@V12@UCaseInsensitiveCompare@cpr@@V?$allocator@U?$pair@$$CBV?$basic_string@DU?$char_traits@D@std@@V?$allocator@D@2@@std@@V12@@std@@@2@$0A@@std@@@std@@IEBAAEBUCaseInsensitiveCompare@cpr@@XZ
	?_Getcomp@?$_Tree@V?$_Tmap_traits@V?$basic_string@DU?$char_traits@D@std@@V?$allocator@D@2@@std@@VEncodedAuthentication@cpr@@U?$less@V?$basic_string@DU?$char_traits@D@std@@V?$allocator@D@2@@std@@@2@V?$allocator@U?$pair@$$CBV?$basic_string@DU?$char_traits@D@std@@V?$allocator@D@2@@std@@VEncodedAuthentication@cpr@@@std@@@2@$0A@@std@@@std@@IEAAAEAU?$less@V?$basic_string@DU?$char_traits@D@std@@V?$allocator@D@2@@std@@@2@XZ
	?_Getcomp@?$_Tree@V?$_Tmap_traits@V?$basic_string@DU?$char_traits@D@std@@V?$allocator@D@2@@std@@VEncodedAuthentication@cpr@@U?$less@V?$basic_string@DU?$char_traits@D@std@@V?$allocator@D@2@@std@@@2@V?$allocator@U?$pair@$$CBV?$basic_string@DU?$char_traits@D@std@@V?$allocator@D@2@@std@@VEncodedAuthentication@cpr@@@std@@@2@$0A@@std@@@std@@IEBAAEBU?$less@V?$basic_string@DU?$char_traits@D@std@@V?$allocator@D@2@@std@@@2@XZ
	?_Getcont@_Iterator_base12@std@@QEBAPEBU_Container_base12@2@XZ
	?_Getimpl@?$_Func_class@XW4InfoType@DebugCallback@cpr@@V?$basic_string@DU?$char_traits@D@std@@V?$allocator@D@2@@std@@_J@std@@AEBAPEAV?$_Func_base@XW4InfoType@DebugCallback@cpr@@V?$basic_string@DU?$char_traits@D@std@@V?$allocator@D@2@@std@@_J@2@XZ
	?_Getimpl@?$_Func_class@_NPEADAEA_K_J@std@@AEBAPEAV?$_Func_base@_NPEADAEA_K_J@2@XZ
	?_Getimpl@?$_Func_class@_NV?$basic_string@DU?$char_traits@D@std@@V?$allocator@D@2@@std@@_J@std@@AEBAPEAV?$_Func_base@_NV?$basic_string@DU?$char_traits@D@std@@V?$allocator@D@2@@std@@_J@2@XZ
	?_Getimpl@?$_Func_class@_N_J_J_J_J_J@std@@AEBAPEAV?$_Func_base@_N_J_J_J_J_J@2@XZ
	?_Getstate@?$basic_stringbuf@DU?$char_traits@D@std@@V?$allocator@D@2@@std@@CAHH@Z
	?_Incref@?$_Ptr_base@UCurlHolder@cpr@@@std@@IEBAXXZ
	?_Incref@_Ref_count_base@std@@QEAAXXZ
	?_Init@?$basic_stringbuf@DU?$char_traits@D@std@@V?$allocator@D@2@@std@@IEAAXPEBD_KH@Z
	?_Insert_node@?$_Tree_val@U?$_Tree_simple_types@U?$pair@$$CBV?$basic_string@DU?$char_traits@D@std@@V?$allocator@D@2@@std@@V12@@std@@@std@@@std@@QEAAPEAU?$_Tree_node@U?$pair@$$CBV?$basic_string@DU?$char_traits@D@std@@V?$allocator@D@2@@std@@V12@@std@@PEAX@2@U?$_Tree_id@PEAU?$_Tree_node@U?$pair@$$CBV?$basic_string@DU?$char_traits@D@std@@V?$allocator@D@2@@std@@V12@@std@@PEAX@std@@@2@QEAU32@@Z
	?_Insert_node@?$_Tree_val@U?$_Tree_simple_types@U?$pair@$$CBV?$basic_string@DU?$char_traits@D@std@@V?$allocator@D@2@@std@@VEncodedAuthentication@cpr@@@std@@@std@@@std@@QEAAPEAU?$_Tree_node@U?$pair@$$CBV?$basic_string@DU?$char_traits@D@std@@V?$allocator@D@2@@std@@VEncodedAuthentication@cpr@@@std@@PEAX@2@U?$_Tree_id@PEAU?$_Tree_node@U?$pair@$$CBV?$basic_string@DU?$char_traits@D@std@@V?$allocator@D@2@@std@@VEncodedAuthentication@cpr@@@std@@PEAX@std@@@2@QEAU32@@Z
	?_Large_mode_engaged@?$_String_val@U?$_Simple_types@D@std@@@std@@QEBA_NXZ
	?_Local@?$_Func_class@XW4InfoType@DebugCallback@cpr@@V?$basic_string@DU?$char_traits@D@std@@V?$allocator@D@2@@std@@_J@std@@AEBA_NXZ
	?_Local@?$_Func_class@_NPEADAEA_K_J@std@@AEBA_NXZ
	?_Local@?$_Func_class@_NV?$basic_string@DU?$char_traits@D@std@@V?$allocator@D@2@@std@@_J@std@@AEBA_NXZ
	?_Local@?$_Func_class@_N_J_J_J_J_J@std@@AEBA_NXZ
	?_Lrotate@?$_Tree_val@U?$_Tree_simple_types@U?$pair@$$CBV?$basic_string@DU?$char_traits@D@std@@V?$allocator@D@2@@std@@V12@@std@@@std@@@std@@QEAAXPEAU?$_Tree_node@U?$pair@$$CBV?$basic_string@DU?$char_traits@D@std@@V?$allocator@D@2@@std@@V12@@std@@PEAX@2@@Z
	?_Lrotate@?$_Tree_val@U?$_Tree_simple_types@U?$pair@$$CBV?$basic_string@DU?$char_traits@D@std@@V?$allocator@D@2@@std@@VEncodedAuthentication@cpr@@@std@@@std@@@std@@QEAAXPEAU?$_Tree_node@U?$pair@$$CBV?$basic_string@DU?$char_traits@D@std@@V?$allocator@D@2@@std@@VEncodedAuthentication@cpr@@@std@@PEAX@2@@Z
	?_Maklocwcs@std@@YAPEA_WPEB_W@Z
	?_Mark@?$_String_bitmap@D$00@std@@QEAA_NPEBDQEBD@Z
	?_Match@?$_String_bitmap@D$00@std@@QEBA_ND@Z
	?_Max@?$_Tree_val@U?$_Tree_simple_types@U?$pair@$$CBV?$basic_string@DU?$char_traits@D@std@@V?$allocator@D@2@@std@@V12@@std@@@std@@@std@@SAPEAU?$_Tree_node@U?$pair@$$CBV?$basic_string@DU?$char_traits@D@std@@V?$allocator@D@2@@std@@V12@@std@@PEAX@2@PEAU32@@Z
	?_Max@?$_Tree_val@U?$_Tree_simple_types@U?$pair@$$CBV?$basic_string@DU?$char_traits@D@std@@V?$allocator@D@2@@std@@VEncodedAuthentication@cpr@@@std@@@std@@@std@@SAPEAU?$_Tree_node@U?$pair@$$CBV?$basic_string@DU?$char_traits@D@std@@V?$allocator@D@2@@std@@VEncodedAuthentication@cpr@@@std@@PEAX@2@PEAU32@@Z
	?_Min@?$_Tree_val@U?$_Tree_simple_types@U?$pair@$$CBV?$basic_string@DU?$char_traits@D@std@@V?$allocator@D@2@@std@@V12@@std@@@std@@@std@@SAPEAU?$_Tree_node@U?$pair@$$CBV?$basic_string@DU?$char_traits@D@std@@V?$allocator@D@2@@std@@V12@@std@@PEAX@2@PEAU32@@Z
	?_Min@?$_Tree_val@U?$_Tree_simple_types@U?$pair@$$CBV?$basic_string@DU?$char_traits@D@std@@V?$allocator@D@2@@std@@VEncodedAuthentication@cpr@@@std@@@std@@@std@@SAPEAU?$_Tree_node@U?$pair@$$CBV?$basic_string@DU?$char_traits@D@std@@V?$allocator@D@2@@std@@VEncodedAuthentication@cpr@@@std@@PEAX@2@PEAU32@@Z
	?_Mymtx@_Mutex_base@std@@AEAAPEAU_Mtx_internal_imp_t@@XZ
	?_Myptr@?$_String_val@U?$_Simple_types@D@std@@@std@@QEAAPEADXZ
	?_Myptr@?$_String_val@U?$_Simple_types@D@std@@@std@@QEBAPEBDXZ
	?_Orphan_all@_Container_base12@std@@QEAAXXZ
	?_Orphan_all_locked_v3@_Container_base12@std@@AEAAXXZ
	?_Orphan_all_unlocked_v3@_Container_base12@std@@AEAAXXZ
	?_Orphan_me_locked_v3@_Iterator_base12@std@@AEAAXXZ
	?_Orphan_me_unlocked_v3@_Iterator_base12@std@@AEAAXXZ
	?_Orphan_ptr@?$_Tree_val@U?$_Tree_simple_types@U?$pair@$$CBV?$basic_string@DU?$char_traits@D@std@@V?$allocator@D@2@@std@@V12@@std@@@std@@@std@@QEAAXQEAU?$_Tree_node@U?$pair@$$CBV?$basic_string@DU?$char_traits@D@std@@V?$allocator@D@2@@std@@V12@@std@@PEAX@2@@Z
	?_Orphan_ptr@?$_Tree_val@U?$_Tree_simple_types@U?$pair@$$CBV?$basic_string@DU?$char_traits@D@std@@V?$allocator@D@2@@std@@VEncodedAuthentication@cpr@@@std@@@std@@@std@@QEAAXQEAU?$_Tree_node@U?$pair@$$CBV?$basic_string@DU?$char_traits@D@std@@V?$allocator@D@2@@std@@VEncodedAuthentication@cpr@@@std@@PEAX@2@@Z
	?_Orphan_range@?$vector@UPair@cpr@@V?$allocator@UPair@cpr@@@std@@@std@@AEBAXPEAUPair@cpr@@0@Z
	?_Orphan_range@?$vector@UParameter@cpr@@V?$allocator@UParameter@cpr@@@std@@@std@@AEBAXPEAUParameter@cpr@@0@Z
	?_Orphan_range@?$vector@Ucurl_forms@@V?$allocator@Ucurl_forms@@@std@@@std@@AEBAXPEAUcurl_forms@@0@Z
	?_Orphan_range@?$vector@V?$basic_string@DU?$char_traits@D@std@@V?$allocator@D@2@@std@@V?$allocator@V?$basic_string@DU?$char_traits@D@std@@V?$allocator@D@2@@std@@@2@@std@@AEBAXPEAV?$basic_string@DU?$char_traits@D@std@@V?$allocator@D@2@@2@0@Z
	?_Orphan_range_locked@?$vector@UPair@cpr@@V?$allocator@UPair@cpr@@@std@@@std@@AEBAXPEAUPair@cpr@@0@Z
	?_Orphan_range_locked@?$vector@UParameter@cpr@@V?$allocator@UParameter@cpr@@@std@@@std@@AEBAXPEAUParameter@cpr@@0@Z
	?_Orphan_range_locked@?$vector@Ucurl_forms@@V?$allocator@Ucurl_forms@@@std@@@std@@AEBAXPEAUcurl_forms@@0@Z
	?_Orphan_range_locked@?$vector@V?$basic_string@DU?$char_traits@D@std@@V?$allocator@D@2@@std@@V?$allocator@V?$basic_string@DU?$char_traits@D@std@@V?$allocator@D@2@@std@@@2@@std@@AEBAXPEAV?$basic_string@DU?$char_traits@D@std@@V?$allocator@D@2@@2@0@Z
	?_Orphan_range_unlocked@?$vector@UPair@cpr@@V?$allocator@UPair@cpr@@@std@@@std@@AEBAXPEAUPair@cpr@@0@Z
	?_Orphan_range_unlocked@?$vector@UParameter@cpr@@V?$allocator@UParameter@cpr@@@std@@@std@@AEBAXPEAUParameter@cpr@@0@Z
	?_Orphan_range_unlocked@?$vector@Ucurl_forms@@V?$allocator@Ucurl_forms@@@std@@@std@@AEBAXPEAUcurl_forms@@0@Z
	?_Orphan_range_unlocked@?$vector@V?$basic_string@DU?$char_traits@D@std@@V?$allocator@D@2@@std@@V?$allocator@V?$basic_string@DU?$char_traits@D@std@@V?$allocator@D@2@@std@@@2@@std@@AEBAXPEAV?$basic_string@DU?$char_traits@D@std@@V?$allocator@D@2@@2@0@Z
	?_Release@?$_Alloc_construct_ptr@V?$allocator@U?$_Tree_node@U?$pair@$$CBV?$basic_string@DU?$char_traits@D@std@@V?$allocator@D@2@@std@@V12@@std@@PEAX@std@@@std@@@std@@QEAAPEAU?$_Tree_node@U?$pair@$$CBV?$basic_string@DU?$char_traits@D@std@@V?$allocator@D@2@@std@@V12@@std@@PEAX@2@XZ
	?_Release@?$_Alloc_construct_ptr@V?$allocator@U?$_Tree_node@U?$pair@$$CBV?$basic_string@DU?$char_traits@D@std@@V?$allocator@D@2@@std@@VEncodedAuthentication@cpr@@@std@@PEAX@std@@@std@@@std@@QEAAPEAU?$_Tree_node@U?$pair@$$CBV?$basic_string@DU?$char_traits@D@std@@V?$allocator@D@2@@std@@VEncodedAuthentication@cpr@@@std@@PEAX@2@XZ
	?_Release@?$_Uninitialized_backout_al@V?$allocator@UPair@cpr@@@std@@@std@@QEAAPEAUPair@cpr@@XZ
	?_Release@?$_Uninitialized_backout_al@V?$allocator@UParameter@cpr@@@std@@@std@@QEAAPEAUParameter@cpr@@XZ
	?_Release@?$_Uninitialized_backout_al@V?$allocator@UPart@cpr@@@std@@@std@@QEAAPEAUPart@cpr@@XZ
	?_Release@?$_Uninitialized_backout_al@V?$allocator@Ucurl_forms@@@std@@@std@@QEAAPEAUcurl_forms@@XZ
	?_Release@?$_Uninitialized_backout_al@V?$allocator@V?$basic_string@DU?$char_traits@D@std@@V?$allocator@D@2@@std@@@std@@@std@@QEAAPEAV?$basic_string@DU?$char_traits@D@std@@V?$allocator@D@2@@2@XZ
	?_Release@_Basic_container_proxy_ptr12@std@@QEAAXXZ
	?_Reset_copy@?$_Func_class@XW4InfoType@DebugCallback@cpr@@V?$basic_string@DU?$char_traits@D@std@@V?$allocator@D@2@@std@@_J@std@@IEAAXAEBV12@@Z
	?_Reset_copy@?$_Func_class@_NPEADAEA_K_J@std@@IEAAXAEBV12@@Z
	?_Reset_copy@?$_Func_class@_NV?$basic_string@DU?$char_traits@D@std@@V?$allocator@D@2@@std@@_J@std@@IEAAXAEBV12@@Z
	?_Reset_copy@?$_Func_class@_N_J_J_J_J_J@std@@IEAAXAEBV12@@Z
	?_Reset_move@?$_Func_class@XW4InfoType@DebugCallback@cpr@@V?$basic_string@DU?$char_traits@D@std@@V?$allocator@D@2@@std@@_J@std@@IEAAX$$QEAV12@@Z
	?_Reset_move@?$_Func_class@_NPEADAEA_K_J@std@@IEAAX$$QEAV12@@Z
	?_Reset_move@?$_Func_class@_NV?$basic_string@DU?$char_traits@D@std@@V?$allocator@D@2@@std@@_J@std@@IEAAX$$QEAV12@@Z
	?_Reset_move@?$_Func_class@_N_J_J_J_J_J@std@@IEAAX$$QEAV12@@Z
	?_Rrotate@?$_Tree_val@U?$_Tree_simple_types@U?$pair@$$CBV?$basic_string@DU?$char_traits@D@std@@V?$allocator@D@2@@std@@V12@@std@@@std@@@std@@QEAAXPEAU?$_Tree_node@U?$pair@$$CBV?$basic_string@DU?$char_traits@D@std@@V?$allocator@D@2@@std@@V12@@std@@PEAX@2@@Z
	?_Rrotate@?$_Tree_val@U?$_Tree_simple_types@U?$pair@$$CBV?$basic_string@DU?$char_traits@D@std@@V?$allocator@D@2@@std@@VEncodedAuthentication@cpr@@@std@@@std@@@std@@QEAAXPEAU?$_Tree_node@U?$pair@$$CBV?$basic_string@DU?$char_traits@D@std@@V?$allocator@D@2@@std@@VEncodedAuthentication@cpr@@@std@@PEAX@2@@Z
	?_Set@?$_Func_class@XW4InfoType@DebugCallback@cpr@@V?$basic_string@DU?$char_traits@D@std@@V?$allocator@D@2@@std@@_J@std@@AEAAXPEAV?$_Func_base@XW4InfoType@DebugCallback@cpr@@V?$basic_string@DU?$char_traits@D@std@@V?$allocator@D@2@@std@@_J@2@@Z
	?_Set@?$_Func_class@_NPEADAEA_K_J@std@@AEAAXPEAV?$_Func_base@_NPEADAEA_K_J@2@@Z
	?_Set@?$_Func_class@_NV?$basic_string@DU?$char_traits@D@std@@V?$allocator@D@2@@std@@_J@std@@AEAAXPEAV?$_Func_base@_NV?$basic_string@DU?$char_traits@D@std@@V?$allocator@D@2@@std@@_J@2@@Z
	?_Set@?$_Func_class@_N_J_J_J_J_J@std@@AEAAXPEAV?$_Func_base@_N_J_J_J_J_J@2@@Z
	?_Swap@?$_Func_class@XW4InfoType@DebugCallback@cpr@@V?$basic_string@DU?$char_traits@D@std@@V?$allocator@D@2@@std@@_J@std@@IEAAXAEAV12@@Z
	?_Swap@?$_Func_class@_NPEADAEA_K_J@std@@IEAAXAEAV12@@Z
	?_Swap@?$_Func_class@_NV?$basic_string@DU?$char_traits@D@std@@V?$allocator@D@2@@std@@_J@std@@IEAAXAEAV12@@Z
	?_Swap@?$_Func_class@_N_J_J_J_J_J@std@@IEAAXAEAV12@@Z
	?_Swap_proxy_and_iterators@?$basic_string@DU?$char_traits@D@std@@V?$allocator@D@2@@std@@AEAAXAEAV12@@Z
	?_Swap_proxy_and_iterators@_Container_base12@std@@QEAAXAEAU12@@Z
	?_Swap_proxy_and_iterators_locked@_Container_base12@std@@AEAAXAEAU12@@Z
	?_Swap_proxy_and_iterators_unlocked@_Container_base12@std@@AEAAXAEAU12@@Z
	?_Swap_val_excluding_comp@?$_Tree@V?$_Tmap_traits@V?$basic_string@DU?$char_traits@D@std@@V?$allocator@D@2@@std@@V12@U?$less@V?$basic_string@DU?$char_traits@D@std@@V?$allocator@D@2@@std@@@2@V?$allocator@U?$pair@$$CBV?$basic_string@DU?$char_traits@D@std@@V?$allocator@D@2@@std@@V12@@std@@@2@$0A@@std@@@std@@AEAAXAEAV12@@Z
	?_Swap_val_excluding_comp@?$_Tree@V?$_Tmap_traits@V?$basic_string@DU?$char_traits@D@std@@V?$allocator@D@2@@std@@V12@UCaseInsensitiveCompare@cpr@@V?$allocator@U?$pair@$$CBV?$basic_string@DU?$char_traits@D@std@@V?$allocator@D@2@@std@@V12@@std@@@2@$0A@@std@@@std@@AEAAXAEAV12@@Z
	?_Swap_val_excluding_comp@?$_Tree@V?$_Tmap_traits@V?$basic_string@DU?$char_traits@D@std@@V?$allocator@D@2@@std@@VEncodedAuthentication@cpr@@U?$less@V?$basic_string@DU?$char_traits@D@std@@V?$allocator@D@2@@std@@@2@V?$allocator@U?$pair@$$CBV?$basic_string@DU?$char_traits@D@std@@V?$allocator@D@2@@std@@VEncodedAuthentication@cpr@@@std@@@2@$0A@@std@@@std@@AEAAXAEAV12@@Z
	?_Switch_to_buf@_Bxty@?$_String_val@U?$_Simple_types@D@std@@@std@@QEAAXXZ
	?_Take_contents@?$_Vector_val@U?$_Simple_types@UParameter@cpr@@@std@@@std@@QEAAXAEAV12@@Z
	?_Take_contents@?$basic_string@DU?$char_traits@D@std@@V?$allocator@D@2@@std@@AEAAXAEAV12@@Z
	?_Throw_bad_array_new_length@std@@YAXXZ
	?_Throw_tree_length_error@std@@YAXXZ
	?_Tidy@?$_Func_class@XW4InfoType@DebugCallback@cpr@@V?$basic_string@DU?$char_traits@D@std@@V?$allocator@D@2@@std@@_J@std@@IEAAXXZ
	?_Tidy@?$_Func_class@_NPEADAEA_K_J@std@@IEAAXXZ
	?_Tidy@?$_Func_class@_NV?$basic_string@DU?$char_traits@D@std@@V?$allocator@D@2@@std@@_J@std@@IEAAXXZ
	?_Tidy@?$_Func_class@_N_J_J_J_J_J@std@@IEAAXXZ
	?_Tidy@?$basic_stringbuf@DU?$char_traits@D@std@@V?$allocator@D@2@@std@@IEAAXXZ
	?_Tidy@?$vector@UPair@cpr@@V?$allocator@UPair@cpr@@@std@@@std@@AEAAXXZ
	?_Tidy@?$vector@UParameter@cpr@@V?$allocator@UParameter@cpr@@@std@@@std@@AEAAXXZ
	?_Tidy@?$vector@UPart@cpr@@V?$allocator@UPart@cpr@@@std@@@std@@AEAAXXZ
	?_Tidy@?$vector@Ucurl_forms@@V?$allocator@Ucurl_forms@@@std@@@std@@AEAAXXZ
	?_Tidy@?$vector@V?$basic_string@DU?$char_traits@D@std@@V?$allocator@D@2@@std@@V?$allocator@V?$basic_string@DU?$char_traits@D@std@@V?$allocator@D@2@@std@@@2@@std@@AEAAXXZ
	?_Tidy_deallocate@?$basic_string@DU?$char_traits@D@std@@V?$allocator@D@2@@std@@AEAAXXZ
	?_Unchecked_begin@?$_Tree@V?$_Tmap_traits@V?$basic_string@DU?$char_traits@D@std@@V?$allocator@D@2@@std@@V12@U?$less@V?$basic_string@DU?$char_traits@D@std@@V?$allocator@D@2@@std@@@2@V?$allocator@U?$pair@$$CBV?$basic_string@DU?$char_traits@D@std@@V?$allocator@D@2@@std@@V12@@std@@@2@$0A@@std@@@std@@QEBA?AV?$_Tree_unchecked_const_iterator@V?$_Tree_val@U?$_Tree_simple_types@U?$pair@$$CBV?$basic_string@DU?$char_traits@D@std@@V?$allocator@D@2@@std@@V12@@std@@@std@@@std@@U_Iterator_base0@2@@2@XZ
	?_Unchecked_begin@?$_Tree@V?$_Tmap_traits@V?$basic_string@DU?$char_traits@D@std@@V?$allocator@D@2@@std@@V12@UCaseInsensitiveCompare@cpr@@V?$allocator@U?$pair@$$CBV?$basic_string@DU?$char_traits@D@std@@V?$allocator@D@2@@std@@V12@@std@@@2@$0A@@std@@@std@@QEAA?AV?$_Tree_unchecked_iterator@V?$_Tree_val@U?$_Tree_simple_types@U?$pair@$$CBV?$basic_string@DU?$char_traits@D@std@@V?$allocator@D@2@@std@@V12@@std@@@std@@@std@@@2@XZ
	?_Unchecked_begin@?$_Tree@V?$_Tmap_traits@V?$basic_string@DU?$char_traits@D@std@@V?$allocator@D@2@@std@@V12@UCaseInsensitiveCompare@cpr@@V?$allocator@U?$pair@$$CBV?$basic_string@DU?$char_traits@D@std@@V?$allocator@D@2@@std@@V12@@std@@@2@$0A@@std@@@std@@QEBA?AV?$_Tree_unchecked_const_iterator@V?$_Tree_val@U?$_Tree_simple_types@U?$pair@$$CBV?$basic_string@DU?$char_traits@D@std@@V?$allocator@D@2@@std@@V12@@std@@@std@@@std@@U_Iterator_base0@2@@2@XZ
	?_Unchecked_begin@?$vector@UPair@cpr@@V?$allocator@UPair@cpr@@@std@@@std@@QEBAPEBUPair@cpr@@XZ
	?_Unchecked_begin@?$vector@UParameter@cpr@@V?$allocator@UParameter@cpr@@@std@@@std@@QEBAPEBUParameter@cpr@@XZ
	?_Unchecked_begin@?$vector@UPart@cpr@@V?$allocator@UPart@cpr@@@std@@@std@@QEAAPEAUPart@cpr@@XZ
	?_Unchecked_begin@?$vector@UPart@cpr@@V?$allocator@UPart@cpr@@@std@@@std@@QEBAPEBUPart@cpr@@XZ
	?_Unchecked_begin@?$vector@V?$basic_string@DU?$char_traits@D@std@@V?$allocator@D@2@@std@@V?$allocator@V?$basic_string@DU?$char_traits@D@std@@V?$allocator@D@2@@std@@@2@@std@@QEAAPEAV?$basic_string@DU?$char_traits@D@std@@V?$allocator@D@2@@2@XZ
	?_Unchecked_end@?$_Tree@V?$_Tmap_traits@V?$basic_string@DU?$char_traits@D@std@@V?$allocator@D@2@@std@@V12@U?$less@V?$basic_string@DU?$char_traits@D@std@@V?$allocator@D@2@@std@@@2@V?$allocator@U?$pair@$$CBV?$basic_string@DU?$char_traits@D@std@@V?$allocator@D@2@@std@@V12@@std@@@2@$0A@@std@@@std@@QEBA?AU_Default_sentinel@2@XZ
	?_Unchecked_end@?$_Tree@V?$_Tmap_traits@V?$basic_string@DU?$char_traits@D@std@@V?$allocator@D@2@@std@@V12@UCaseInsensitiveCompare@cpr@@V?$allocator@U?$pair@$$CBV?$basic_string@DU?$char_traits@D@std@@V?$allocator@D@2@@std@@V12@@std@@@2@$0A@@std@@@std@@QEBA?AU_Default_sentinel@2@XZ
	?_Unchecked_end@?$vector@UPair@cpr@@V?$allocator@UPair@cpr@@@std@@@std@@QEBAPEBUPair@cpr@@XZ
	?_Unchecked_end@?$vector@UParameter@cpr@@V?$allocator@UParameter@cpr@@@std@@@std@@QEBAPEBUParameter@cpr@@XZ
	?_Unchecked_end@?$vector@UPart@cpr@@V?$allocator@UPart@cpr@@@std@@@std@@QEAAPEAUPart@cpr@@XZ
	?_Unchecked_end@?$vector@UPart@cpr@@V?$allocator@UPart@cpr@@@std@@@std@@QEBAPEBUPart@cpr@@XZ
	?_Unchecked_end@?$vector@V?$basic_string@DU?$char_traits@D@std@@V?$allocator@D@2@@std@@V?$allocator@V?$basic_string@DU?$char_traits@D@std@@V?$allocator@D@2@@std@@@2@@std@@QEAAPEAV?$basic_string@DU?$char_traits@D@std@@V?$allocator@D@2@@2@XZ
	?_Unwrapped@?$_String_const_iterator@V?$_String_val@U?$_Simple_types@D@std@@@std@@@std@@QEBAPEBDXZ
	?_Verify_ownership_levels@_Mutex_base@std@@IEAA_NXZ
	?_Verify_range@std@@YAXAEBV?$_String_const_iterator@V?$_String_val@U?$_Simple_types@D@std@@@std@@@1@0@Z
	?_Xlen_string@std@@YAXXZ
	?_Xlength@?$vector@UPair@cpr@@V?$allocator@UPair@cpr@@@std@@@std@@CAXXZ
	?_Xlength@?$vector@UParameter@cpr@@V?$allocator@UParameter@cpr@@@std@@@std@@CAXXZ
	?_Xlength@?$vector@UPart@cpr@@V?$allocator@UPart@cpr@@@std@@@std@@CAXXZ
	?_Xlength@?$vector@Ucurl_forms@@V?$allocator@Ucurl_forms@@@std@@@std@@CAXXZ
	?_Xlength@?$vector@V?$basic_string@DU?$char_traits@D@std@@V?$allocator@D@2@@std@@V?$allocator@V?$basic_string@DU?$char_traits@D@std@@V?$allocator@D@2@@std@@@2@@std@@CAXXZ
	?_Xran@?$_String_val@U?$_Simple_types@D@std@@@std@@SAXXZ
	?__empty_global_delete@@YAXPEAX@Z
	?__empty_global_delete@@YAXPEAX_K@Z
	?allocate@?$allocator@D@std@@QEAAPEAD_K@Z
	?allocate@?$allocator@U?$_Tree_node@U?$pair@$$CBV?$basic_string@DU?$char_traits@D@std@@V?$allocator@D@2@@std@@V12@@std@@PEAX@std@@@std@@QEAAPEAU?$_Tree_node@U?$pair@$$CBV?$basic_string@DU?$char_traits@D@std@@V?$allocator@D@2@@std@@V12@@std@@PEAX@2@_K@Z
	?allocate@?$allocator@U?$_Tree_node@U?$pair@$$CBV?$basic_string@DU?$char_traits@D@std@@V?$allocator@D@2@@std@@VEncodedAuthentication@cpr@@@std@@PEAX@std@@@std@@QEAAPEAU?$_Tree_node@U?$pair@$$CBV?$basic_string@DU?$char_traits@D@std@@V?$allocator@D@2@@std@@VEncodedAuthentication@cpr@@@std@@PEAX@2@_K@Z
	?allocate@?$allocator@UPair@cpr@@@std@@QEAAPEAUPair@cpr@@_K@Z
	?allocate@?$allocator@UParameter@cpr@@@std@@QEAAPEAUParameter@cpr@@_K@Z
	?allocate@?$allocator@UPart@cpr@@@std@@QEAAPEAUPart@cpr@@_K@Z
	?allocate@?$allocator@U_Container_proxy@std@@@std@@QEAAPEAU_Container_proxy@2@_K@Z
	?allocate@?$allocator@Ucurl_forms@@@std@@QEAAPEAUcurl_forms@@_K@Z
	?allocate@?$allocator@V?$basic_string@DU?$char_traits@D@std@@V?$allocator@D@2@@std@@@std@@QEAAPEAV?$basic_string@DU?$char_traits@D@std@@V?$allocator@D@2@@2@_K@Z
	?any@cpr@@YA_NW4PostRedirectFlags@1@@Z
	?append@?$basic_string@DU?$char_traits@D@std@@V?$allocator@D@2@@std@@QEAAAEAV12@AEBV12@@Z
	?append@?$basic_string@DU?$char_traits@D@std@@V?$allocator@D@2@@std@@QEAAAEAV12@QEBD@Z
	?append@?$basic_string@DU?$char_traits@D@std@@V?$allocator@D@2@@std@@QEAAAEAV12@QEBD_K@Z
	?append@?$basic_string@DU?$char_traits@D@std@@V?$allocator@D@2@@std@@QEAAAEAV12@_KD@Z
	?assign@?$_Narrow_char_traits@DH@std@@SAPEADQEAD_KD@Z
	?assign@?$_Narrow_char_traits@DH@std@@SAXAEADAEBD@Z
	?assign@?$basic_string@DU?$char_traits@D@std@@V?$allocator@D@2@@std@@QEAAAEAV12@QEBD_K@Z
	?back@?$basic_string@DU?$char_traits@D@std@@V?$allocator@D@2@@std@@QEBAAEBDXZ
	?back@?$vector@V?$basic_string@DU?$char_traits@D@std@@V?$allocator@D@2@@std@@V?$allocator@V?$basic_string@DU?$char_traits@D@std@@V?$allocator@D@2@@std@@@2@@std@@QEAAAEAV?$basic_string@DU?$char_traits@D@std@@V?$allocator@D@2@@2@XZ
	?begin@?$_Tree@V?$_Tmap_traits@V?$basic_string@DU?$char_traits@D@std@@V?$allocator@D@2@@std@@V12@U?$less@V?$basic_string@DU?$char_traits@D@std@@V?$allocator@D@2@@std@@@2@V?$allocator@U?$pair@$$CBV?$basic_string@DU?$char_traits@D@std@@V?$allocator@D@2@@std@@V12@@std@@@2@$0A@@std@@@std@@QEAA?AV?$_Tree_iterator@V?$_Tree_val@U?$_Tree_simple_types@U?$pair@$$CBV?$basic_string@DU?$char_traits@D@std@@V?$allocator@D@2@@std@@V12@@std@@@std@@@std@@@2@XZ
	?begin@?$_Tree@V?$_Tmap_traits@V?$basic_string@DU?$char_traits@D@std@@V?$allocator@D@2@@std@@V12@U?$less@V?$basic_string@DU?$char_traits@D@std@@V?$allocator@D@2@@std@@@2@V?$allocator@U?$pair@$$CBV?$basic_string@DU?$char_traits@D@std@@V?$allocator@D@2@@std@@V12@@std@@@2@$0A@@std@@@std@@QEBA?AV?$_Tree_const_iterator@V?$_Tree_val@U?$_Tree_simple_types@U?$pair@$$CBV?$basic_string@DU?$char_traits@D@std@@V?$allocator@D@2@@std@@V12@@std@@@std@@@std@@@2@XZ
	?begin@?$basic_string@DU?$char_traits@D@std@@V?$allocator@D@2@@std@@QEBA?AV?$_String_const_iterator@V?$_String_val@U?$_Simple_types@D@std@@@std@@@2@XZ
	?begin@?$initializer_list@U?$pair@$$CBV?$basic_string@DU?$char_traits@D@std@@V?$allocator@D@2@@std@@V12@@std@@@std@@QEBAPEBU?$pair@$$CBV?$basic_string@DU?$char_traits@D@std@@V?$allocator@D@2@@std@@V12@@2@XZ
	?begin@?$initializer_list@UPair@cpr@@@std@@QEBAPEBUPair@cpr@@XZ
	?begin@?$initializer_list@UParameter@cpr@@@std@@QEBAPEBUParameter@cpr@@XZ
	?begin@?$initializer_list@UPart@cpr@@@std@@QEBAPEBUPart@cpr@@XZ
	?begin@Cookies@cpr@@QEAA?AV?$_Tree_iterator@V?$_Tree_val@U?$_Tree_simple_types@U?$pair@$$CBV?$basic_string@DU?$char_traits@D@std@@V?$allocator@D@2@@std@@V12@@std@@@std@@@std@@@std@@XZ
	?begin@Cookies@cpr@@QEBA?AV?$_Tree_const_iterator@V?$_Tree_val@U?$_Tree_simple_types@U?$pair@$$CBV?$basic_string@DU?$char_traits@D@std@@V?$allocator@D@2@@std@@V12@@std@@@std@@@std@@@std@@XZ
	?c_str@?$StringHolder@VBody@cpr@@@cpr@@QEBAPEBDXZ
	?c_str@?$StringHolder@VInterface@cpr@@@cpr@@QEBAPEBDXZ
	?c_str@?$StringHolder@VUrl@cpr@@@cpr@@QEBAPEBDXZ
	?c_str@?$StringHolder@VUserAgent@cpr@@@cpr@@QEBAPEBDXZ
	?c_str@?$basic_string@DU?$char_traits@D@std@@V?$allocator@D@2@@std@@QEBAPEBDXZ
	?capacity@?$vector@UPair@cpr@@V?$allocator@UPair@cpr@@@std@@@std@@QEBA_KXZ
	?capacity@?$vector@UParameter@cpr@@V?$allocator@UParameter@cpr@@@std@@@std@@QEBA_KXZ
	?capacity@?$vector@Ucurl_forms@@V?$allocator@Ucurl_forms@@@std@@@std@@QEBA_KXZ
	?capacity@?$vector@V?$basic_string@DU?$char_traits@D@std@@V?$allocator@D@2@@std@@V?$allocator@V?$basic_string@DU?$char_traits@D@std@@V?$allocator@D@2@@std@@@2@@std@@QEBA_KXZ
	?cbegin@?$_Tree@V?$_Tmap_traits@V?$basic_string@DU?$char_traits@D@std@@V?$allocator@D@2@@std@@V12@U?$less@V?$basic_string@DU?$char_traits@D@std@@V?$allocator@D@2@@std@@@2@V?$allocator@U?$pair@$$CBV?$basic_string@DU?$char_traits@D@std@@V?$allocator@D@2@@std@@V12@@std@@@2@$0A@@std@@@std@@QEBA?AV?$_Tree_const_iterator@V?$_Tree_val@U?$_Tree_simple_types@U?$pair@$$CBV?$basic_string@DU?$char_traits@D@std@@V?$allocator@D@2@@std@@V12@@std@@@std@@@std@@@2@XZ
	?cbegin@Cookies@cpr@@QEBA?AV?$_Tree_const_iterator@V?$_Tree_val@U?$_Tree_simple_types@U?$pair@$$CBV?$basic_string@DU?$char_traits@D@std@@V?$allocator@D@2@@std@@V12@@std@@@std@@@std@@@std@@XZ
	?cend@?$_Tree@V?$_Tmap_traits@V?$basic_string@DU?$char_traits@D@std@@V?$allocator@D@2@@std@@V12@U?$less@V?$basic_string@DU?$char_traits@D@std@@V?$allocator@D@2@@std@@@2@V?$allocator@U?$pair@$$CBV?$basic_string@DU?$char_traits@D@std@@V?$allocator@D@2@@std@@V12@@std@@@2@$0A@@std@@@std@@QEBA?AV?$_Tree_const_iterator@V?$_Tree_val@U?$_Tree_simple_types@U?$pair@$$CBV?$basic_string@DU?$char_traits@D@std@@V?$allocator@D@2@@std@@V12@@std@@@std@@@std@@@2@XZ
	?cend@Cookies@cpr@@QEBA?AV?$_Tree_const_iterator@V?$_Tree_val@U?$_Tree_simple_types@U?$pair@$$CBV?$basic_string@DU?$char_traits@D@std@@V?$allocator@D@2@@std@@V12@@std@@@std@@@std@@@std@@XZ
	?clear@?$_Tree@V?$_Tmap_traits@V?$basic_string@DU?$char_traits@D@std@@V?$allocator@D@2@@std@@V12@U?$less@V?$basic_string@DU?$char_traits@D@std@@V?$allocator@D@2@@std@@@2@V?$allocator@U?$pair@$$CBV?$basic_string@DU?$char_traits@D@std@@V?$allocator@D@2@@std@@V12@@std@@@2@$0A@@std@@@std@@QEAAXXZ
	?clear@?$_Tree@V?$_Tmap_traits@V?$basic_string@DU?$char_traits@D@std@@V?$allocator@D@2@@std@@V12@UCaseInsensitiveCompare@cpr@@V?$allocator@U?$pair@$$CBV?$basic_string@DU?$char_traits@D@std@@V?$allocator@D@2@@std@@V12@@std@@@2@$0A@@std@@@std@@QEAAXXZ
	?clear@?$_Tree@V?$_Tmap_traits@V?$basic_string@DU?$char_traits@D@std@@V?$allocator@D@2@@std@@VEncodedAuthentication@cpr@@U?$less@V?$basic_string@DU?$char_traits@D@std@@V?$allocator@D@2@@std@@@2@V?$allocator@U?$pair@$$CBV?$basic_string@DU?$char_traits@D@std@@V?$allocator@D@2@@std@@VEncodedAuthentication@cpr@@@std@@@2@$0A@@std@@@std@@QEAAXXZ
	?clear@?$basic_string@DU?$char_traits@D@std@@V?$allocator@D@2@@std@@QEAAXXZ
	?compare@?$_Narrow_char_traits@DH@std@@SAHQEBD0_K@Z
	?compare@?$basic_string@DU?$char_traits@D@std@@V?$allocator@D@2@@std@@QEBAHAEBV12@@Z
	?copy@?$_Char_traits@DH@std@@SAPEADQEADQEBD_K@Z
	?count@?$_Tree@V?$_Tmap_traits@V?$basic_string@DU?$char_traits@D@std@@V?$allocator@D@2@@std@@V12@U?$less@V?$basic_string@DU?$char_traits@D@std@@V?$allocator@D@2@@std@@@2@V?$allocator@U?$pair@$$CBV?$basic_string@DU?$char_traits@D@std@@V?$allocator@D@2@@std@@V12@@std@@@2@$0A@@std@@@std@@QEBA_KAEBV?$basic_string@DU?$char_traits@D@std@@V?$allocator@D@2@@2@@Z
	?count@?$_Tree@V?$_Tmap_traits@V?$basic_string@DU?$char_traits@D@std@@V?$allocator@D@2@@std@@VEncodedAuthentication@cpr@@U?$less@V?$basic_string@DU?$char_traits@D@std@@V?$allocator@D@2@@std@@@2@V?$allocator@U?$pair@$$CBV?$basic_string@DU?$char_traits@D@std@@V?$allocator@D@2@@std@@VEncodedAuthentication@cpr@@@std@@@2@$0A@@std@@@std@@QEBA_KAEBV?$basic_string@DU?$char_traits@D@std@@V?$allocator@D@2@@2@@Z
	?count@?$duration@_JU?$ratio@$00$0DOI@@std@@@chrono@std@@QEBA_JXZ
	?data@?$array@D$0BAA@@std@@QEAAPEADXZ
	?data@?$basic_string@DU?$char_traits@D@std@@V?$allocator@D@2@@std@@QEBAPEBDXZ
	?data@?$vector@Ucurl_forms@@V?$allocator@Ucurl_forms@@@std@@@std@@QEAAPEAUcurl_forms@@XZ
	?deallocate@?$_Default_allocator_traits@V?$allocator@U?$_Tree_node@U?$pair@$$CBV?$basic_string@DU?$char_traits@D@std@@V?$allocator@D@2@@std@@V12@@std@@PEAX@std@@@std@@@std@@SAXAEAV?$allocator@U?$_Tree_node@U?$pair@$$CBV?$basic_string@DU?$char_traits@D@std@@V?$allocator@D@2@@std@@V12@@std@@PEAX@std@@@2@QEAU?$_Tree_node@U?$pair@$$CBV?$basic_string@DU?$char_traits@D@std@@V?$allocator@D@2@@std@@V12@@std@@PEAX@2@_K@Z
	?deallocate@?$_Default_allocator_traits@V?$allocator@U?$_Tree_node@U?$pair@$$CBV?$basic_string@DU?$char_traits@D@std@@V?$allocator@D@2@@std@@VEncodedAuthentication@cpr@@@std@@PEAX@std@@@std@@@std@@SAXAEAV?$allocator@U?$_Tree_node@U?$pair@$$CBV?$basic_string@DU?$char_traits@D@std@@V?$allocator@D@2@@std@@VEncodedAuthentication@cpr@@@std@@PEAX@std@@@2@QEAU?$_Tree_node@U?$pair@$$CBV?$basic_string@DU?$char_traits@D@std@@V?$allocator@D@2@@std@@VEncodedAuthentication@cpr@@@std@@PEAX@2@_K@Z
	?deallocate@?$_Default_allocator_traits@V?$allocator@U_Container_proxy@std@@@std@@@std@@SAXAEAV?$allocator@U_Container_proxy@std@@@2@QEAU_Container_proxy@2@_K@Z
	?deallocate@?$allocator@D@std@@QEAAXQEAD_K@Z
	?deallocate@?$allocator@U?$_Tree_node@U?$pair@$$CBV?$basic_string@DU?$char_traits@D@std@@V?$allocator@D@2@@std@@V12@@std@@PEAX@std@@@std@@QEAAXQEAU?$_Tree_node@U?$pair@$$CBV?$basic_string@DU?$char_traits@D@std@@V?$allocator@D@2@@std@@V12@@std@@PEAX@2@_K@Z
	?deallocate@?$allocator@U?$_Tree_node@U?$pair@$$CBV?$basic_string@DU?$char_traits@D@std@@V?$allocator@D@2@@std@@VEncodedAuthentication@cpr@@@std@@PEAX@std@@@std@@QEAAXQEAU?$_Tree_node@U?$pair@$$CBV?$basic_string@DU?$char_traits@D@std@@V?$allocator@D@2@@std@@VEncodedAuthentication@cpr@@@std@@PEAX@2@_K@Z
	?deallocate@?$allocator@UPair@cpr@@@std@@QEAAXQEAUPair@cpr@@_K@Z
	?deallocate@?$allocator@UParameter@cpr@@@std@@QEAAXQEAUParameter@cpr@@_K@Z
	?deallocate@?$allocator@UPart@cpr@@@std@@QEAAXQEAUPart@cpr@@_K@Z
	?deallocate@?$allocator@Ucurl_forms@@@std@@QEAAXQEAUcurl_forms@@_K@Z
	?deallocate@?$allocator@V?$basic_string@DU?$char_traits@D@std@@V?$allocator@D@2@@std@@@std@@QEAAXQEAV?$basic_string@DU?$char_traits@D@std@@V?$allocator@D@2@@2@_K@Z
	?debugUserFunction@util@cpr@@YAHPEAXW4curl_infotype@@PEAD_KPEBVDebugCallback@2@@Z
	?empty@?$basic_string@DU?$char_traits@D@std@@V?$allocator@D@2@@std@@QEBA_NXZ
	?end@?$_Tree@V?$_Tmap_traits@V?$basic_string@DU?$char_traits@D@std@@V?$allocator@D@2@@std@@V12@U?$less@V?$basic_string@DU?$char_traits@D@std@@V?$allocator@D@2@@std@@@2@V?$allocator@U?$pair@$$CBV?$basic_string@DU?$char_traits@D@std@@V?$allocator@D@2@@std@@V12@@std@@@2@$0A@@std@@@std@@QEAA?AV?$_Tree_iterator@V?$_Tree_val@U?$_Tree_simple_types@U?$pair@$$CBV?$basic_string@DU?$char_traits@D@std@@V?$allocator@D@2@@std@@V12@@std@@@std@@@std@@@2@XZ
	?end@?$_Tree@V?$_Tmap_traits@V?$basic_string@DU?$char_traits@D@std@@V?$allocator@D@2@@std@@V12@U?$less@V?$basic_string@DU?$char_traits@D@std@@V?$allocator@D@2@@std@@@2@V?$allocator@U?$pair@$$CBV?$basic_string@DU?$char_traits@D@std@@V?$allocator@D@2@@std@@V12@@std@@@2@$0A@@std@@@std@@QEBA?AV?$_Tree_const_iterator@V?$_Tree_val@U?$_Tree_simple_types@U?$pair@$$CBV?$basic_string@DU?$char_traits@D@std@@V?$allocator@D@2@@std@@V12@@std@@@std@@@std@@@2@XZ
	?end@?$_Tree@V?$_Tmap_traits@V?$basic_string@DU?$char_traits@D@std@@V?$allocator@D@2@@std@@V12@UCaseInsensitiveCompare@cpr@@V?$allocator@U?$pair@$$CBV?$basic_string@DU?$char_traits@D@std@@V?$allocator@D@2@@std@@V12@@std@@@2@$0A@@std@@@std@@QEAA?AV?$_Tree_iterator@V?$_Tree_val@U?$_Tree_simple_types@U?$pair@$$CBV?$basic_string@DU?$char_traits@D@std@@V?$allocator@D@2@@std@@V12@@std@@@std@@@std@@@2@XZ
	?end@?$basic_string@DU?$char_traits@D@std@@V?$allocator@D@2@@std@@QEBA?AV?$_String_const_iterator@V?$_String_val@U?$_Simple_types@D@std@@@std@@@2@XZ
	?end@?$initializer_list@U?$pair@$$CBV?$basic_string@DU?$char_traits@D@std@@V?$allocator@D@2@@std@@V12@@std@@@std@@QEBAPEBU?$pair@$$CBV?$basic_string@DU?$char_traits@D@std@@V?$allocator@D@2@@std@@V12@@2@XZ
	?end@?$initializer_list@UPair@cpr@@@std@@QEBAPEBUPair@cpr@@XZ
	?end@?$initializer_list@UParameter@cpr@@@std@@QEBAPEBUParameter@cpr@@XZ
	?end@?$initializer_list@UPart@cpr@@@std@@QEBAPEBUPart@cpr@@XZ
	?end@Cookies@cpr@@QEAA?AV?$_Tree_iterator@V?$_Tree_val@U?$_Tree_simple_types@U?$pair@$$CBV?$basic_string@DU?$char_traits@D@std@@V?$allocator@D@2@@std@@V12@@std@@@std@@@std@@@std@@XZ
	?end@Cookies@cpr@@QEBA?AV?$_Tree_const_iterator@V?$_Tree_val@U?$_Tree_simple_types@U?$pair@$$CBV?$basic_string@DU?$char_traits@D@std@@V?$allocator@D@2@@std@@V12@@std@@@std@@@std@@@std@@XZ
	?eof@?$_Narrow_char_traits@DH@std@@SAHXZ
	?eq@?$_Narrow_char_traits@DH@std@@SA_NDD@Z
	?eq_int_type@?$_Narrow_char_traits@DH@std@@SA_NHH@Z
	?erase@?$basic_string@DU?$char_traits@D@std@@V?$allocator@D@2@@std@@QEAAAEAV12@_K0@Z
	?erase@?$basic_string@DU?$char_traits@D@std@@V?$allocator@D@2@@std@@QEAAAEAV12@_K@Z
	?find@?$_Narrow_char_traits@DH@std@@SAPEBDQEBD_KAEBD@Z
	?find@?$_Tree@V?$_Tmap_traits@V?$basic_string@DU?$char_traits@D@std@@V?$allocator@D@2@@std@@V12@UCaseInsensitiveCompare@cpr@@V?$allocator@U?$pair@$$CBV?$basic_string@DU?$char_traits@D@std@@V?$allocator@D@2@@std@@V12@@std@@@2@$0A@@std@@@std@@QEAA?AV?$_Tree_iterator@V?$_Tree_val@U?$_Tree_simple_types@U?$pair@$$CBV?$basic_string@DU?$char_traits@D@std@@V?$allocator@D@2@@std@@V12@@std@@@std@@@std@@@2@AEBV?$basic_string@DU?$char_traits@D@std@@V?$allocator@D@2@@2@@Z
	?find@?$basic_string@DU?$char_traits@D@std@@V?$allocator@D@2@@std@@QEBA_KD_K@Z
	?find_first_not_of@?$basic_string@DU?$char_traits@D@std@@V?$allocator@D@2@@std@@QEBA_KQEBD_K@Z
	?find_first_of@?$basic_string@DU?$char_traits@D@std@@V?$allocator@D@2@@std@@QEBA_KQEBD_K@Z
	?find_last_not_of@?$basic_string@DU?$char_traits@D@std@@V?$allocator@D@2@@std@@QEBA_KQEBD_K@Z
	?front@?$basic_string@DU?$char_traits@D@std@@V?$allocator@D@2@@std@@QEBAAEBDXZ
	?get@?$_Ptr_base@UCurlHolder@cpr@@@std@@IEBAPEAUCurlHolder@cpr@@XZ
	?getErrorCodeForCurlError@Error@cpr@@CA?AW4ErrorCode@2@H@Z
	?get_allocator@?$basic_string@DU?$char_traits@D@std@@V?$allocator@D@2@@std@@QEBA?AV?$allocator@D@2@XZ
	?get_deleter@?$unique_ptr@VImpl@Session@cpr@@U?$default_delete@VImpl@Session@cpr@@@std@@@std@@QEAAAEAU?$default_delete@VImpl@Session@cpr@@@2@XZ
	?has@Proxies@cpr@@QEBA_NAEBV?$basic_string@DU?$char_traits@D@std@@V?$allocator@D@2@@std@@@Z
	?has@ProxyAuthentication@cpr@@QEBA_NAEBV?$basic_string@DU?$char_traits@D@std@@V?$allocator@D@2@@std@@@Z
	?headerUserFunction@util@cpr@@YA_KPEAD_K1PEBVHeaderCallback@2@@Z
	?insert@?$_Tree@V?$_Tmap_traits@V?$basic_string@DU?$char_traits@D@std@@V?$allocator@D@2@@std@@V12@U?$less@V?$basic_string@DU?$char_traits@D@std@@V?$allocator@D@2@@std@@@2@V?$allocator@U?$pair@$$CBV?$basic_string@DU?$char_traits@D@std@@V?$allocator@D@2@@std@@V12@@std@@@2@$0A@@std@@@std@@QEAAXV?$initializer_list@U?$pair@$$CBV?$basic_string@DU?$char_traits@D@std@@V?$allocator@D@2@@std@@V12@@std@@@2@@Z
	?insert@?$basic_string@DU?$char_traits@D@std@@V?$allocator@D@2@@std@@QEAAAEAV12@_KQEBD0@Z
	?insert@?$basic_string@DU?$char_traits@D@std@@V?$allocator@D@2@@std@@QEAAAEAV12@_KQEBD@Z
	?key_comp@?$_Tree@V?$_Tmap_traits@V?$basic_string@DU?$char_traits@D@std@@V?$allocator@D@2@@std@@V12@U?$less@V?$basic_string@DU?$char_traits@D@std@@V?$allocator@D@2@@std@@@2@V?$allocator@U?$pair@$$CBV?$basic_string@DU?$char_traits@D@std@@V?$allocator@D@2@@std@@V12@@std@@@2@$0A@@std@@@std@@QEBA?AU?$less@V?$basic_string@DU?$char_traits@D@std@@V?$allocator@D@2@@std@@@2@XZ
	?key_comp@?$_Tree@V?$_Tmap_traits@V?$basic_string@DU?$char_traits@D@std@@V?$allocator@D@2@@std@@V12@UCaseInsensitiveCompare@cpr@@V?$allocator@U?$pair@$$CBV?$basic_string@DU?$char_traits@D@std@@V?$allocator@D@2@@std@@V12@@std@@@2@$0A@@std@@@std@@QEBA?AUCaseInsensitiveCompare@cpr@@XZ
	?length@?$_Narrow_char_traits@DH@std@@SA_KQEBD@Z
	?length@?$basic_string@DU?$char_traits@D@std@@V?$allocator@D@2@@std@@QEBA_KXZ
	?lock@_Mutex_base@std@@QEAAXXZ
	?makeDownloadRequest@Impl@Session@cpr@@AEAA?AVResponse@3@XZ
	?makeRequest@Impl@Session@cpr@@AEAA?AVResponse@3@XZ
	?max@?$numeric_limits@J@std@@SAJXZ
	?max@?$numeric_limits@_J@std@@SA_JXZ
	?max_size@?$_Default_allocator_traits@V?$allocator@D@std@@@std@@SA_KAEBV?$allocator@D@2@@Z
	?max_size@?$_Default_allocator_traits@V?$allocator@U?$_Tree_node@U?$pair@$$CBV?$basic_string@DU?$char_traits@D@std@@V?$allocator@D@2@@std@@V12@@std@@PEAX@std@@@std@@@std@@SA_KAEBV?$allocator@U?$_Tree_node@U?$pair@$$CBV?$basic_string@DU?$char_traits@D@std@@V?$allocator@D@2@@std@@V12@@std@@PEAX@std@@@2@@Z
	?max_size@?$_Default_allocator_traits@V?$allocator@U?$_Tree_node@U?$pair@$$CBV?$basic_string@DU?$char_traits@D@std@@V?$allocator@D@2@@std@@VEncodedAuthentication@cpr@@@std@@PEAX@std@@@std@@@std@@SA_KAEBV?$allocator@U?$_Tree_node@U?$pair@$$CBV?$basic_string@DU?$char_traits@D@std@@V?$allocator@D@2@@std@@VEncodedAuthentication@cpr@@@std@@PEAX@std@@@2@@Z
	?max_size@?$_Default_allocator_traits@V?$allocator@UPair@cpr@@@std@@@std@@SA_KAEBV?$allocator@UPair@cpr@@@2@@Z
	?max_size@?$_Default_allocator_traits@V?$allocator@UParameter@cpr@@@std@@@std@@SA_KAEBV?$allocator@UParameter@cpr@@@2@@Z
	?max_size@?$_Default_allocator_traits@V?$allocator@UPart@cpr@@@std@@@std@@SA_KAEBV?$allocator@UPart@cpr@@@2@@Z
	?max_size@?$_Default_allocator_traits@V?$allocator@Ucurl_forms@@@std@@@std@@SA_KAEBV?$allocator@Ucurl_forms@@@2@@Z
	?max_size@?$_Default_allocator_traits@V?$allocator@V?$basic_string@DU?$char_traits@D@std@@V?$allocator@D@2@@std@@@std@@@std@@SA_KAEBV?$allocator@V?$basic_string@DU?$char_traits@D@std@@V?$allocator@D@2@@std@@@2@@Z
	?max_size@?$_Tree@V?$_Tmap_traits@V?$basic_string@DU?$char_traits@D@std@@V?$allocator@D@2@@std@@V12@U?$less@V?$basic_string@DU?$char_traits@D@std@@V?$allocator@D@2@@std@@@2@V?$allocator@U?$pair@$$CBV?$basic_string@DU?$char_traits@D@std@@V?$allocator@D@2@@std@@V12@@std@@@2@$0A@@std@@@std@@QEBA_KXZ
	?max_size@?$_Tree@V?$_Tmap_traits@V?$basic_string@DU?$char_traits@D@std@@V?$allocator@D@2@@std@@V12@UCaseInsensitiveCompare@cpr@@V?$allocator@U?$pair@$$CBV?$basic_string@DU?$char_traits@D@std@@V?$allocator@D@2@@std@@V12@@std@@@2@$0A@@std@@@std@@QEBA_KXZ
	?max_size@?$_Tree@V?$_Tmap_traits@V?$basic_string@DU?$char_traits@D@std@@V?$allocator@D@2@@std@@VEncodedAuthentication@cpr@@U?$less@V?$basic_string@DU?$char_traits@D@std@@V?$allocator@D@2@@std@@@2@V?$allocator@U?$pair@$$CBV?$basic_string@DU?$char_traits@D@std@@V?$allocator@D@2@@std@@VEncodedAuthentication@cpr@@@std@@@2@$0A@@std@@@std@@QEBA_KXZ
	?max_size@?$basic_string@DU?$char_traits@D@std@@V?$allocator@D@2@@std@@QEBA_KXZ
	?max_size@?$vector@UPair@cpr@@V?$allocator@UPair@cpr@@@std@@@std@@QEBA_KXZ
	?max_size@?$vector@UParameter@cpr@@V?$allocator@UParameter@cpr@@@std@@@std@@QEBA_KXZ
	?max_size@?$vector@UPart@cpr@@V?$allocator@UPart@cpr@@@std@@@std@@QEBA_KXZ
	?max_size@?$vector@Ucurl_forms@@V?$allocator@Ucurl_forms@@@std@@@std@@QEBA_KXZ
	?max_size@?$vector@V?$basic_string@DU?$char_traits@D@std@@V?$allocator@D@2@@std@@V?$allocator@V?$basic_string@DU?$char_traits@D@std@@V?$allocator@D@2@@std@@@2@@std@@QEBA_KXZ
	?min@?$numeric_limits@J@std@@SAJXZ
	?move@?$_Char_traits@DH@std@@SAPEADQEADQEBD_K@Z
	?not_eof@?$_Narrow_char_traits@DH@std@@SAHH@Z
	?overflow@?$basic_stringbuf@DU?$char_traits@D@std@@V?$allocator@D@2@@std@@MEAAHH@Z
	?parseCookies@util@cpr@@YA?AVCookies@2@PEAUcurl_slist@@@Z
	?parseHeader@util@cpr@@YA?AV?$map@V?$basic_string@DU?$char_traits@D@std@@V?$allocator@D@2@@std@@V12@UCaseInsensitiveCompare@cpr@@V?$allocator@U?$pair@$$CBV?$basic_string@DU?$char_traits@D@std@@V?$allocator@D@2@@std@@V12@@std@@@2@@std@@AEBV?$basic_string@DU?$char_traits@D@std@@V?$allocator@D@2@@4@PEAV54@1@Z
	?pbackfail@?$basic_stringbuf@DU?$char_traits@D@std@@V?$allocator@D@2@@std@@MEAAHH@Z
	?pointer_to@?$pointer_traits@PEAD@std@@SAPEADAEAD@Z
	?pop_back@?$vector@V?$basic_string@DU?$char_traits@D@std@@V?$allocator@D@2@@std@@V?$allocator@V?$basic_string@DU?$char_traits@D@std@@V?$allocator@D@2@@std@@@2@@std@@QEAAXXZ
	?prepareCommon@Impl@Session@cpr@@AEAAXXZ
	?progressUserFunction@util@cpr@@YAHPEBVProgressCallback@2@_J111@Z
	?push_back@?$basic_string@DU?$char_traits@D@std@@V?$allocator@D@2@@std@@QEAAXD@Z
	?push_back@?$vector@UPair@cpr@@V?$allocator@UPair@cpr@@@std@@@std@@QEAAX$$QEAUPair@cpr@@@Z
	?push_back@?$vector@UPair@cpr@@V?$allocator@UPair@cpr@@@std@@@std@@QEAAXAEBUPair@cpr@@@Z
	?push_back@?$vector@UParameter@cpr@@V?$allocator@UParameter@cpr@@@std@@@std@@QEAAX$$QEAUParameter@cpr@@@Z
	?push_back@?$vector@UParameter@cpr@@V?$allocator@UParameter@cpr@@@std@@@std@@QEAAXAEBUParameter@cpr@@@Z
	?push_back@?$vector@Ucurl_forms@@V?$allocator@Ucurl_forms@@@std@@@std@@QEAAX$$QEAUcurl_forms@@@Z
	?push_back@?$vector@V?$basic_string@DU?$char_traits@D@std@@V?$allocator@D@2@@std@@V?$allocator@V?$basic_string@DU?$char_traits@D@std@@V?$allocator@D@2@@std@@@2@@std@@QEAAXAEBV?$basic_string@DU?$char_traits@D@std@@V?$allocator@D@2@@2@@Z
	?readUserFunction@util@cpr@@YA_KPEAD_K1PEBVReadCallback@2@@Z
	?release@?$unique_ptr@VImpl@Session@cpr@@U?$default_delete@VImpl@Session@cpr@@@std@@@std@@QEAAPEAVImpl@Session@cpr@@XZ
	?reserve@?$basic_string@DU?$char_traits@D@std@@V?$allocator@D@2@@std@@QEAAX_K@Z
	?reset@?$unique_ptr@VImpl@Session@cpr@@U?$default_delete@VImpl@Session@cpr@@@std@@@std@@QEAAXPEAVImpl@Session@cpr@@@Z
	?resize@?$basic_string@DU?$char_traits@D@std@@V?$allocator@D@2@@std@@QEAAX_KD@Z
	?resize@?$vector@V?$basic_string@DU?$char_traits@D@std@@V?$allocator@D@2@@std@@V?$allocator@V?$basic_string@DU?$char_traits@D@std@@V?$allocator@D@2@@std@@@2@@std@@QEAAX_K@Z
	?seekoff@?$basic_stringbuf@DU?$char_traits@D@std@@V?$allocator@D@2@@std@@MEAA?AV?$fpos@U_Mbstatet@@@2@_JHH@Z
	?seekpos@?$basic_stringbuf@DU?$char_traits@D@std@@V?$allocator@D@2@@std@@MEAA?AV?$fpos@U_Mbstatet@@@2@V32@H@Z
	?select_on_container_copy_construction@?$_Default_allocator_traits@V?$allocator@D@std@@@std@@SA?AV?$allocator@D@2@AEBV32@@Z
	?size@?$basic_string@DU?$char_traits@D@std@@V?$allocator@D@2@@std@@QEBA_KXZ
	?size@?$initializer_list@UPair@cpr@@@std@@QEBA_KXZ
	?size@?$initializer_list@UParameter@cpr@@@std@@QEBA_KXZ
	?size@?$initializer_list@UPart@cpr@@@std@@QEBA_KXZ
	?split@util@cpr@@YA?AV?$vector@V?$basic_string@DU?$char_traits@D@std@@V?$allocator@D@2@@std@@V?$allocator@V?$basic_string@DU?$char_traits@D@std@@V?$allocator@D@2@@std@@@2@@std@@AEBV?$basic_string@DU?$char_traits@D@std@@V?$allocator@D@2@@4@D@Z
	?str@?$StringHolder@VBody@cpr@@@cpr@@QEAAAEBV?$basic_string@DU?$char_traits@D@std@@V?$allocator@D@2@@std@@XZ
	?str@?$StringHolder@VBody@cpr@@@cpr@@QEBAAEBV?$basic_string@DU?$char_traits@D@std@@V?$allocator@D@2@@std@@XZ
	?str@?$StringHolder@VInterface@cpr@@@cpr@@QEBAAEBV?$basic_string@DU?$char_traits@D@std@@V?$allocator@D@2@@std@@XZ
	?str@?$StringHolder@VUrl@cpr@@@cpr@@QEAAAEBV?$basic_string@DU?$char_traits@D@std@@V?$allocator@D@2@@std@@XZ
	?str@?$basic_stringbuf@DU?$char_traits@D@std@@V?$allocator@D@2@@std@@QEBA?AV?$basic_string@DU?$char_traits@D@std@@V?$allocator@D@2@@2@XZ
	?str@?$basic_stringstream@DU?$char_traits@D@std@@V?$allocator@D@2@@std@@QEBA?AV?$basic_string@DU?$char_traits@D@std@@V?$allocator@D@2@@2@XZ
	?substr@?$basic_string@DU?$char_traits@D@std@@V?$allocator@D@2@@std@@QEBA?AV12@_K0@Z
	?swap@?$function@$$A6AXW4InfoType@DebugCallback@cpr@@V?$basic_string@DU?$char_traits@D@std@@V?$allocator@D@2@@std@@_J@Z@std@@QEAAXAEAV12@@Z
	?swap@?$function@$$A6A_NPEADAEA_K_J@Z@std@@QEAAXAEAV12@@Z
	?swap@?$function@$$A6A_NV?$basic_string@DU?$char_traits@D@std@@V?$allocator@D@2@@std@@_J@Z@std@@QEAAXAEAV12@@Z
	?swap@?$function@$$A6A_N_J0000@Z@std@@QEAAXAEAV12@@Z
	?to_char_type@?$_Narrow_char_traits@DH@std@@SADH@Z
	?to_int_type@?$_Narrow_char_traits@DH@std@@SAHD@Z
	?to_string@std@@YA?AV?$basic_string@DU?$char_traits@D@std@@V?$allocator@D@2@@1@_J@Z
	?underflow@?$basic_stringbuf@DU?$char_traits@D@std@@V?$allocator@D@2@@std@@MEAAHXZ
	?unlock@_Mutex_base@std@@QEAAXXZ
	?urlDecode@CurlHolder@cpr@@QEBA?AV?$basic_string@DU?$char_traits@D@std@@V?$allocator@D@2@@std@@AEBV34@@Z
	?urlDecode@util@cpr@@YA?AV?$basic_string@DU?$char_traits@D@std@@V?$allocator@D@2@@std@@AEBV34@@Z
	?urlEncode@CurlHolder@cpr@@QEBA?AV?$basic_string@DU?$char_traits@D@std@@V?$allocator@D@2@@std@@AEBV34@@Z
	?urlEncode@util@cpr@@YA?AV?$basic_string@DU?$char_traits@D@std@@V?$allocator@D@2@@std@@AEBV34@@Z
	?what@exception@std@@UEBAPEBDXZ
	?writeFileFunction@util@cpr@@YA_KPEAD_K1PEAV?$basic_ofstream@DU?$char_traits@D@std@@@std@@@Z
	?writeFunction@util@cpr@@YA_KPEAD_K1PEAV?$basic_string@DU?$char_traits@D@std@@V?$allocator@D@2@@std@@@Z
	?writeUserFunction@util@cpr@@YA_KPEAD_K1PEBVWriteCallback@2@@Z
	wmemcpy
