EXPORTS 
	??_R0?AV?$StringHolder@VUrl@cpr@@@cpr@@@8 	 DATA
	??_R0?AV?$_Iosb@H@std@@@8 	 DATA
	??_R0?AV?$_Ref_count@UCurlHolder@cpr@@@std@@@8 	 DATA
	??_R0?AV?$basic_ios@DU?$char_traits@D@std@@@std@@@8 	 DATA
	??_R0?AV?$basic_iostream@DU?$char_traits@D@std@@@std@@@8 	 DATA
	??_R0?AV?$basic_istream@DU?$char_traits@D@std@@@std@@@8 	 DATA
	??_R0?AV?$basic_istringstream@DU?$char_traits@D@std@@V?$allocator@D@2@@std@@@8 	 DATA
	??_R0?AV?$basic_ostream@DU?$char_traits@D@std@@@std@@@8 	 DATA
	??_R0?AV?$basic_streambuf@DU?$char_traits@D@std@@@std@@@8 	 DATA
	??_R0?AV?$basic_stringbuf@DU?$char_traits@D@std@@V?$allocator@D@2@@std@@@8 	 DATA
	??_R0?AV?$basic_stringstream@DU?$char_traits@D@std@@V?$allocator@D@2@@std@@@8 	 DATA
	??_R0?AVEncodedAuthentication@cpr@@@8 	 DATA
	??_R0?AVUrl@cpr@@@8 	 DATA
	??_R0?AV_Ref_count_base@std@@@8 	 DATA
	??_R0?AVbad_alloc@std@@@8 	 DATA
	??_R0?AVbad_array_new_length@std@@@8 	 DATA
	??_R0?AVexception@std@@@8 	 DATA
	??_R0?AVinvalid_argument@std@@@8 	 DATA
	??_R0?AVios_base@std@@@8 	 DATA
	??_R0?AVlogic_error@std@@@8 	 DATA
	??_R0?AVoverflow_error@std@@@8 	 DATA
	??_R0?AVruntime_error@std@@@8 	 DATA
	??_R0?AVunderflow_error@std@@@8 	 DATA
	?curl_easy_init_mutex_@CurlHolder@cpr@@0Vmutex@std@@A 	 DATA
	??$?0PEAD$0A@@?$basic_string@DU?$char_traits@D@std@@V?$allocator@D@2@@std@@QEAA@PEAD0AEBV?$allocator@D@1@@Z
	??$?6DU?$char_traits@D@std@@V?$allocator@D@1@@std@@YAAEAV?$basic_ostream@DU?$char_traits@D@std@@@0@AEAV10@AEBV?$basic_string@DU?$char_traits@D@std@@V?$allocator@D@2@@0@@Z
	??$?6U?$char_traits@D@std@@@std@@YAAEAV?$basic_ostream@DU?$char_traits@D@std@@@0@AEAV10@PEBD@Z
	??$?HDU?$char_traits@D@std@@V?$allocator@D@1@@std@@YA?AV?$basic_string@DU?$char_traits@D@std@@V?$allocator@D@2@@0@$$QEAV10@QEBD@Z
	??$?HDU?$char_traits@D@std@@V?$allocator@D@1@@std@@YA?AV?$basic_string@DU?$char_traits@D@std@@V?$allocator@D@2@@0@QEBD$$QEAV10@@Z
	??$?MDU?$char_traits@D@std@@V?$allocator@D@1@@std@@YA_NAEBV?$basic_string@DU?$char_traits@D@std@@V?$allocator@D@2@@0@0@Z
	??$_Allocate_manually_vector_aligned@U_Default_allocate_traits@std@@@std@@YAPEAX_K@Z
	??$_Assign_counted_range@PEAUParameter@cpr@@@?$vector@UParameter@cpr@@V?$allocator@UParameter@cpr@@@std@@@std@@AEAAXPEAUParameter@cpr@@_K@Z
	??$_Construct@$00PEBD@?$basic_string@DU?$char_traits@D@std@@V?$allocator@D@2@@std@@AEAAXQEBD_K@Z
	??$_Copy@$0A@@?$_Tree@V?$_Tmap_traits@V?$basic_string@DU?$char_traits@D@std@@V?$allocator@D@2@@std@@V12@U?$less@V?$basic_string@DU?$char_traits@D@std@@V?$allocator@D@2@@std@@@2@V?$allocator@U?$pair@$$CBV?$basic_string@DU?$char_traits@D@std@@V?$allocator@D@2@@std@@V12@@std@@@2@$0A@@std@@@std@@IEAAXAEBV01@@Z
	??$_Copy_memmove@PEAUcurl_forms@@PEAU1@@std@@YAPEAUcurl_forms@@PEAU1@00@Z
	??$_Copy_nodes@$0A@@?$_Tree@V?$_Tmap_traits@V?$basic_string@DU?$char_traits@D@std@@V?$allocator@D@2@@std@@V12@U?$less@V?$basic_string@DU?$char_traits@D@std@@V?$allocator@D@2@@std@@@2@V?$allocator@U?$pair@$$CBV?$basic_string@DU?$char_traits@D@std@@V?$allocator@D@2@@std@@V12@@std@@@2@$0A@@std@@@std@@IEAAPEAU?$_Tree_node@U?$pair@$$CBV?$basic_string@DU?$char_traits@D@std@@V?$allocator@D@2@@std@@V12@@std@@PEAX@1@PEAU21@0@Z
	??$_Copy_nodes@$0A@@?$_Tree@V?$_Tmap_traits@V?$basic_string@DU?$char_traits@D@std@@V?$allocator@D@2@@std@@V12@UCaseInsensitiveCompare@cpr@@V?$allocator@U?$pair@$$CBV?$basic_string@DU?$char_traits@D@std@@V?$allocator@D@2@@std@@V12@@std@@@2@$0A@@std@@@std@@IEAAPEAU?$_Tree_node@U?$pair@$$CBV?$basic_string@DU?$char_traits@D@std@@V?$allocator@D@2@@std@@V12@@std@@PEAX@1@PEAU21@0@Z
	??$_Copy_nodes@$0A@@?$_Tree@V?$_Tmap_traits@V?$basic_string@DU?$char_traits@D@std@@V?$allocator@D@2@@std@@VEncodedAuthentication@cpr@@U?$less@V?$basic_string@DU?$char_traits@D@std@@V?$allocator@D@2@@std@@@2@V?$allocator@U?$pair@$$CBV?$basic_string@DU?$char_traits@D@std@@V?$allocator@D@2@@std@@VEncodedAuthentication@cpr@@@std@@@2@$0A@@std@@@std@@IEAAPEAU?$_Tree_node@U?$pair@$$CBV?$basic_string@DU?$char_traits@D@std@@V?$allocator@D@2@@std@@VEncodedAuthentication@cpr@@@std@@PEAX@1@PEAU21@0@Z
	??$_Destroy_range@V?$allocator@UPair@cpr@@@std@@@std@@YAXPEAUPair@cpr@@QEAU12@AEAV?$allocator@UPair@cpr@@@0@@Z
	??$_Destroy_range@V?$allocator@UParameter@cpr@@@std@@@std@@YAXPEAUParameter@cpr@@QEAU12@AEAV?$allocator@UParameter@cpr@@@0@@Z
	??$_Destroy_range@V?$allocator@UPart@cpr@@@std@@@std@@YAXPEAUPart@cpr@@QEAU12@AEAV?$allocator@UPart@cpr@@@0@@Z
	??$_Destroy_range@V?$allocator@V?$basic_string@DU?$char_traits@D@std@@V?$allocator@D@2@@std@@@std@@@std@@YAXPEAV?$basic_string@DU?$char_traits@D@std@@V?$allocator@D@2@@0@QEAV10@AEAV?$allocator@V?$basic_string@DU?$char_traits@D@std@@V?$allocator@D@2@@std@@@0@@Z
	??$_Emplace_reallocate@AEBUPair@cpr@@@?$vector@UPair@cpr@@V?$allocator@UPair@cpr@@@std@@@std@@AEAAPEAUPair@cpr@@QEAU23@AEBU23@@Z
	??$_Emplace_reallocate@AEBUParameter@cpr@@@?$vector@UParameter@cpr@@V?$allocator@UParameter@cpr@@@std@@@std@@AEAAPEAUParameter@cpr@@QEAU23@AEBU23@@Z
	??$_Emplace_reallocate@AEBV?$basic_string@DU?$char_traits@D@std@@V?$allocator@D@2@@std@@@?$vector@V?$basic_string@DU?$char_traits@D@std@@V?$allocator@D@2@@std@@V?$allocator@V?$basic_string@DU?$char_traits@D@std@@V?$allocator@D@2@@std@@@2@@std@@AEAAPEAV?$basic_string@DU?$char_traits@D@std@@V?$allocator@D@2@@1@QEAV21@AEBV21@@Z
	??$_Emplace_reallocate@UPair@cpr@@@?$vector@UPair@cpr@@V?$allocator@UPair@cpr@@@std@@@std@@AEAAPEAUPair@cpr@@QEAU23@$$QEAU23@@Z
	??$_Emplace_reallocate@UParameter@cpr@@@?$vector@UParameter@cpr@@V?$allocator@UParameter@cpr@@@std@@@std@@AEAAPEAUParameter@cpr@@QEAU23@$$QEAU23@@Z
	??$_Emplace_reallocate@Ucurl_forms@@@?$vector@Ucurl_forms@@V?$allocator@Ucurl_forms@@@std@@@std@@AEAAPEAUcurl_forms@@QEAU2@$$QEAU2@@Z
	??$_Erase_tree@V?$allocator@U?$_Tree_node@U?$pair@$$CBV?$basic_string@DU?$char_traits@D@std@@V?$allocator@D@2@@std@@V12@@std@@PEAX@std@@@std@@@?$_Tree_val@U?$_Tree_simple_types@U?$pair@$$CBV?$basic_string@DU?$char_traits@D@std@@V?$allocator@D@2@@std@@V12@@std@@@std@@@std@@QEAAXAEAV?$allocator@U?$_Tree_node@U?$pair@$$CBV?$basic_string@DU?$char_traits@D@std@@V?$allocator@D@2@@std@@V12@@std@@PEAX@std@@@1@PEAU?$_Tree_node@U?$pair@$$CBV?$basic_string@DU?$char_traits@D@std@@V?$allocator@D@2@@std@@V12@@std@@PEAX@1@@Z
	??$_Erase_tree@V?$allocator@U?$_Tree_node@U?$pair@$$CBV?$basic_string@DU?$char_traits@D@std@@V?$allocator@D@2@@std@@VEncodedAuthentication@cpr@@@std@@PEAX@std@@@std@@@?$_Tree_val@U?$_Tree_simple_types@U?$pair@$$CBV?$basic_string@DU?$char_traits@D@std@@V?$allocator@D@2@@std@@VEncodedAuthentication@cpr@@@std@@@std@@@std@@QEAAXAEAV?$allocator@U?$_Tree_node@U?$pair@$$CBV?$basic_string@DU?$char_traits@D@std@@V?$allocator@D@2@@std@@VEncodedAuthentication@cpr@@@std@@PEAX@std@@@1@PEAU?$_Tree_node@U?$pair@$$CBV?$basic_string@DU?$char_traits@D@std@@V?$allocator@D@2@@std@@VEncodedAuthentication@cpr@@@std@@PEAX@1@@Z
	??$_Erase_tree_and_orphan@V?$allocator@U?$_Tree_node@U?$pair@$$CBV?$basic_string@DU?$char_traits@D@std@@V?$allocator@D@2@@std@@V12@@std@@PEAX@std@@@std@@@?$_Tree_val@U?$_Tree_simple_types@U?$pair@$$CBV?$basic_string@DU?$char_traits@D@std@@V?$allocator@D@2@@std@@V12@@std@@@std@@@std@@QEAAXAEAV?$allocator@U?$_Tree_node@U?$pair@$$CBV?$basic_string@DU?$char_traits@D@std@@V?$allocator@D@2@@std@@V12@@std@@PEAX@std@@@1@PEAU?$_Tree_node@U?$pair@$$CBV?$basic_string@DU?$char_traits@D@std@@V?$allocator@D@2@@std@@V12@@std@@PEAX@1@@Z
	??$_Erase_tree_and_orphan@V?$allocator@U?$_Tree_node@U?$pair@$$CBV?$basic_string@DU?$char_traits@D@std@@V?$allocator@D@2@@std@@VEncodedAuthentication@cpr@@@std@@PEAX@std@@@std@@@?$_Tree_val@U?$_Tree_simple_types@U?$pair@$$CBV?$basic_string@DU?$char_traits@D@std@@V?$allocator@D@2@@std@@VEncodedAuthentication@cpr@@@std@@@std@@@std@@QEAAXAEAV?$allocator@U?$_Tree_node@U?$pair@$$CBV?$basic_string@DU?$char_traits@D@std@@V?$allocator@D@2@@std@@VEncodedAuthentication@cpr@@@std@@PEAX@std@@@1@PEAU?$_Tree_node@U?$pair@$$CBV?$basic_string@DU?$char_traits@D@std@@V?$allocator@D@2@@std@@VEncodedAuthentication@cpr@@@std@@PEAX@1@@Z
	??$_Find_hint@V?$basic_string@DU?$char_traits@D@std@@V?$allocator@D@2@@std@@@?$_Tree@V?$_Tmap_traits@V?$basic_string@DU?$char_traits@D@std@@V?$allocator@D@2@@std@@V12@U?$less@V?$basic_string@DU?$char_traits@D@std@@V?$allocator@D@2@@std@@@2@V?$allocator@U?$pair@$$CBV?$basic_string@DU?$char_traits@D@std@@V?$allocator@D@2@@std@@V12@@std@@@2@$0A@@std@@@std@@IEBA?AU?$_Tree_find_hint_result@PEAU?$_Tree_node@U?$pair@$$CBV?$basic_string@DU?$char_traits@D@std@@V?$allocator@D@2@@std@@V12@@std@@PEAX@std@@@1@QEAU?$_Tree_node@U?$pair@$$CBV?$basic_string@DU?$char_traits@D@std@@V?$allocator@D@2@@std@@V12@@std@@PEAX@1@AEBV?$basic_string@DU?$char_traits@D@std@@V?$allocator@D@2@@1@@Z
	??$_Find_lower_bound@V?$basic_string@DU?$char_traits@D@std@@V?$allocator@D@2@@std@@@?$_Tree@V?$_Tmap_traits@V?$basic_string@DU?$char_traits@D@std@@V?$allocator@D@2@@std@@V12@U?$less@V?$basic_string@DU?$char_traits@D@std@@V?$allocator@D@2@@std@@@2@V?$allocator@U?$pair@$$CBV?$basic_string@DU?$char_traits@D@std@@V?$allocator@D@2@@std@@V12@@std@@@2@$0A@@std@@@std@@IEBA?AU?$_Tree_find_result@PEAU?$_Tree_node@U?$pair@$$CBV?$basic_string@DU?$char_traits@D@std@@V?$allocator@D@2@@std@@V12@@std@@PEAX@std@@@1@AEBV?$basic_string@DU?$char_traits@D@std@@V?$allocator@D@2@@1@@Z
	??$_Find_lower_bound@V?$basic_string@DU?$char_traits@D@std@@V?$allocator@D@2@@std@@@?$_Tree@V?$_Tmap_traits@V?$basic_string@DU?$char_traits@D@std@@V?$allocator@D@2@@std@@VEncodedAuthentication@cpr@@U?$less@V?$basic_string@DU?$char_traits@D@std@@V?$allocator@D@2@@std@@@2@V?$allocator@U?$pair@$$CBV?$basic_string@DU?$char_traits@D@std@@V?$allocator@D@2@@std@@VEncodedAuthentication@cpr@@@std@@@2@$0A@@std@@@std@@IEBA?AU?$_Tree_find_result@PEAU?$_Tree_node@U?$pair@$$CBV?$basic_string@DU?$char_traits@D@std@@V?$allocator@D@2@@std@@VEncodedAuthentication@cpr@@@std@@PEAX@std@@@1@AEBV?$basic_string@DU?$char_traits@D@std@@V?$allocator@D@2@@1@@Z
	??$_Getvals@_W@?$time_get@DV?$istreambuf_iterator@DU?$char_traits@D@std@@@std@@@std@@IEAAX_WAEBV_Locinfo@1@@Z
	??$_Getvals@_W@?$time_get@_WV?$istreambuf_iterator@_WU?$char_traits@_W@std@@@std@@@std@@IEAAX_WAEBV_Locinfo@1@@Z
	??$_Insert_string@DU?$char_traits@D@std@@_K@std@@YAAEAV?$basic_ostream@DU?$char_traits@D@std@@@0@AEAV10@QEBD_K@Z
	??$_Integral_to_string@D_J@std@@YA?AV?$basic_string@DU?$char_traits@D@std@@V?$allocator@D@2@@0@_J@Z
	??$_Maklocstr@D@std@@YAPEADPEBDPEADAEBU_Cvtvec@@@Z
	??$_Reallocate_grow_by@V<lambda_319d5e083f45f90dcdce5dce53cbb275>@@D@?$basic_string@DU?$char_traits@D@std@@V?$allocator@D@2@@std@@AEAAAEAV01@_KV<lambda_319d5e083f45f90dcdce5dce53cbb275>@@D@Z
	??$_Reallocate_grow_by@V<lambda_65e615be2a453ca0576c979606f46740>@@PEBD_K@?$basic_string@DU?$char_traits@D@std@@V?$allocator@D@2@@std@@AEAAAEAV01@_KV<lambda_65e615be2a453ca0576c979606f46740>@@PEBD_K@Z
	??$_Reallocate_grow_by@V<lambda_9013ee9e23efe4882b67eff5b0ecf103>@@$$V@?$basic_string@DU?$char_traits@D@std@@V?$allocator@D@2@@std@@AEAAAEAV01@_KV<lambda_9013ee9e23efe4882b67eff5b0ecf103>@@@Z
	??$_Reallocate_grow_by@V<lambda_e1befb086ad3257e3f042a63030725f7>@@_KD@?$basic_string@DU?$char_traits@D@std@@V?$allocator@D@2@@std@@AEAAAEAV01@_KV<lambda_e1befb086ad3257e3f042a63030725f7>@@_KD@Z
	??$_Reallocate_grow_by@V<lambda_f3a66ab6a0570788f31503db83886f49>@@_KPEBD_K@?$basic_string@DU?$char_traits@D@std@@V?$allocator@D@2@@std@@AEAAAEAV01@_KV<lambda_f3a66ab6a0570788f31503db83886f49>@@_KPEBD2@Z
	??$_Resize_reallocate@U_Value_init_tag@std@@@?$vector@V?$basic_string@DU?$char_traits@D@std@@V?$allocator@D@2@@std@@V?$allocator@V?$basic_string@DU?$char_traits@D@std@@V?$allocator@D@2@@std@@@2@@std@@AEAAX_KAEBU_Value_init_tag@1@@Z
	??$_UIntegral_to_buff@D_K@std@@YAPEADPEAD_K@Z
	??$_Uninitialized_move@PEAUPair@cpr@@V?$allocator@UPair@cpr@@@std@@@std@@YAPEAUPair@cpr@@QEAU12@0PEAU12@AEAV?$allocator@UPair@cpr@@@0@@Z
	??$_Uninitialized_move@PEAUParameter@cpr@@V?$allocator@UParameter@cpr@@@std@@@std@@YAPEAUParameter@cpr@@QEAU12@0PEAU12@AEAV?$allocator@UParameter@cpr@@@0@@Z
	??$_Uninitialized_move@PEAV?$basic_string@DU?$char_traits@D@std@@V?$allocator@D@2@@std@@V?$allocator@V?$basic_string@DU?$char_traits@D@std@@V?$allocator@D@2@@std@@@2@@std@@YAPEAV?$basic_string@DU?$char_traits@D@std@@V?$allocator@D@2@@0@QEAV10@0PEAV10@AEAV?$allocator@V?$basic_string@DU?$char_traits@D@std@@V?$allocator@D@2@@std@@@0@@Z
	??$destroy@U?$pair@$$CBV?$basic_string@DU?$char_traits@D@std@@V?$allocator@D@2@@std@@V12@@std@@@?$_Default_allocator_traits@V?$allocator@U?$_Tree_node@U?$pair@$$CBV?$basic_string@DU?$char_traits@D@std@@V?$allocator@D@2@@std@@V12@@std@@PEAX@std@@@std@@@std@@SAXAEAV?$allocator@U?$_Tree_node@U?$pair@$$CBV?$basic_string@DU?$char_traits@D@std@@V?$allocator@D@2@@std@@V12@@std@@PEAX@std@@@1@QEAU?$pair@$$CBV?$basic_string@DU?$char_traits@D@std@@V?$allocator@D@2@@std@@V12@@1@@Z
	??$destroy@U?$pair@$$CBV?$basic_string@DU?$char_traits@D@std@@V?$allocator@D@2@@std@@VEncodedAuthentication@cpr@@@std@@@?$_Default_allocator_traits@V?$allocator@U?$_Tree_node@U?$pair@$$CBV?$basic_string@DU?$char_traits@D@std@@V?$allocator@D@2@@std@@VEncodedAuthentication@cpr@@@std@@PEAX@std@@@std@@@std@@SAXAEAV?$allocator@U?$_Tree_node@U?$pair@$$CBV?$basic_string@DU?$char_traits@D@std@@V?$allocator@D@2@@std@@VEncodedAuthentication@cpr@@@std@@PEAX@std@@@1@QEAU?$pair@$$CBV?$basic_string@DU?$char_traits@D@std@@V?$allocator@D@2@@std@@VEncodedAuthentication@cpr@@@1@@Z
	??$getline@DU?$char_traits@D@std@@V?$allocator@D@2@@std@@YAAEAV?$basic_istream@DU?$char_traits@D@std@@@0@$$QEAV10@AEAV?$basic_string@DU?$char_traits@D@std@@V?$allocator@D@2@@0@D@Z
	??$getline@DU?$char_traits@D@std@@V?$allocator@D@2@@std@@YAAEAV?$basic_istream@DU?$char_traits@D@std@@@0@AEAV10@AEAV?$basic_string@DU?$char_traits@D@std@@V?$allocator@D@2@@0@D@Z
	??0?$CurlContainer@UPair@cpr@@@cpr@@QEAA@AEBV?$initializer_list@UPair@cpr@@@std@@@Z
	??0?$CurlContainer@UParameter@cpr@@@cpr@@QEAA@AEBV?$initializer_list@UParameter@cpr@@@std@@@Z
	??0?$basic_string@DU?$char_traits@D@std@@V?$allocator@D@2@@std@@QEAA@AEBV01@@Z
	??0?$basic_string@DU?$char_traits@D@std@@V?$allocator@D@2@@std@@QEAA@U_String_constructor_concat_tag@1@AEAV01@1@Z
	??0?$basic_string@DU?$char_traits@D@std@@V?$allocator@D@2@@std@@QEAA@U_String_constructor_concat_tag@1@AEBV01@QEBD_K23@Z
	??0?$basic_stringbuf@DU?$char_traits@D@std@@V?$allocator@D@2@@std@@QEAA@AEBV?$basic_string@DU?$char_traits@D@std@@V?$allocator@D@2@@1@H@Z
	??0?$vector@UPart@cpr@@V?$allocator@UPart@cpr@@@std@@@std@@QEAA@V?$initializer_list@UPart@cpr@@@1@AEBV?$allocator@UPart@cpr@@@1@@Z
	??0CurlHolder@cpr@@QEAA@XZ
	??0Impl@Session@cpr@@QEAA@XZ
	??0Multipart@cpr@@QEAA@AEBV?$initializer_list@UPart@cpr@@@std@@@Z
	??0Parameters@cpr@@QEAA@AEBV?$initializer_list@UParameter@cpr@@@std@@@Z
	??0Payload@cpr@@QEAA@AEBV?$initializer_list@UPair@cpr@@@std@@@Z
	??0Proxies@cpr@@QEAA@AEBV?$initializer_list@U?$pair@$$CBV?$basic_string@DU?$char_traits@D@std@@V?$allocator@D@2@@std@@V12@@std@@@std@@@Z
	??0Response@cpr@@QEAA@V?$shared_ptr@UCurlHolder@cpr@@@std@@$$QEAV?$basic_string@DU?$char_traits@D@std@@V?$allocator@D@2@@3@1$$QEAVCookies@1@$$QEAVError@1@@Z
	??0Session@cpr@@QEAA@$$QEAV01@@Z
	??0Session@cpr@@QEAA@XZ
	??0bad_alloc@std@@QEAA@AEBV01@@Z
	??0bad_array_new_length@std@@QEAA@AEBV01@@Z
	??0bad_array_new_length@std@@QEAA@XZ
	??0exception@std@@QEAA@AEBV01@@Z
	??0invalid_argument@std@@QEAA@AEBV01@@Z
	??0invalid_argument@std@@QEAA@PEBD@Z
	??0logic_error@std@@QEAA@AEBV01@@Z
	??0overflow_error@std@@QEAA@AEBV01@@Z
	??0overflow_error@std@@QEAA@AEBV?$basic_string@DU?$char_traits@D@std@@V?$allocator@D@2@@1@@Z
	??0runtime_error@std@@QEAA@AEBV01@@Z
	??0underflow_error@std@@QEAA@AEBV01@@Z
	??0underflow_error@std@@QEAA@AEBV?$basic_string@DU?$char_traits@D@std@@V?$allocator@D@2@@1@@Z
	??1?$StringHolder@VUrl@cpr@@@cpr@@UEAA@XZ
	??1?$_Alloc_construct_ptr@V?$allocator@U?$_Tree_node@U?$pair@$$CBV?$basic_string@DU?$char_traits@D@std@@V?$allocator@D@2@@std@@V12@@std@@PEAX@std@@@std@@@std@@QEAA@XZ
	??1?$_Alloc_construct_ptr@V?$allocator@U?$_Tree_node@U?$pair@$$CBV?$basic_string@DU?$char_traits@D@std@@V?$allocator@D@2@@std@@VEncodedAuthentication@cpr@@@std@@PEAX@std@@@std@@@std@@QEAA@XZ
	??1?$_Func_class@XW4InfoType@DebugCallback@cpr@@V?$basic_string@DU?$char_traits@D@std@@V?$allocator@D@2@@std@@_J@std@@QEAA@XZ
	??1?$_Func_class@_NPEADAEA_K_J@std@@QEAA@XZ
	??1?$_Func_class@_NV?$basic_string@DU?$char_traits@D@std@@V?$allocator@D@2@@std@@_J@std@@QEAA@XZ
	??1?$_Func_class@_N_J_J_J_J_J@std@@QEAA@XZ
	??1?$_Temporary_owner@UCurlHolder@cpr@@@std@@QEAA@XZ
	??1?$_Tidy_guard@V?$vector@UPair@cpr@@V?$allocator@UPair@cpr@@@std@@@std@@@std@@QEAA@XZ
	??1?$_Tidy_guard@V?$vector@UParameter@cpr@@V?$allocator@UParameter@cpr@@@std@@@std@@@std@@QEAA@XZ
	??1?$_Tidy_guard@V?$vector@UPart@cpr@@V?$allocator@UPart@cpr@@@std@@@std@@@std@@QEAA@XZ
	??1?$_Tree@V?$_Tmap_traits@V?$basic_string@DU?$char_traits@D@std@@V?$allocator@D@2@@std@@V12@U?$less@V?$basic_string@DU?$char_traits@D@std@@V?$allocator@D@2@@std@@@2@V?$allocator@U?$pair@$$CBV?$basic_string@DU?$char_traits@D@std@@V?$allocator@D@2@@std@@V12@@std@@@2@$0A@@std@@@std@@QEAA@XZ
	??1?$_Tree_temp_node_alloc@V?$allocator@U?$_Tree_node@U?$pair@$$CBV?$basic_string@DU?$char_traits@D@std@@V?$allocator@D@2@@std@@V12@@std@@PEAX@std@@@std@@@std@@QEAA@XZ
	??1?$_Tree_temp_node_alloc@V?$allocator@U?$_Tree_node@U?$pair@$$CBV?$basic_string@DU?$char_traits@D@std@@V?$allocator@D@2@@std@@VEncodedAuthentication@cpr@@@std@@PEAX@std@@@std@@@std@@QEAA@XZ
	??1?$_Uninitialized_backout_al@V?$allocator@UPair@cpr@@@std@@@std@@QEAA@XZ
	??1?$_Uninitialized_backout_al@V?$allocator@UParameter@cpr@@@std@@@std@@QEAA@XZ
	??1?$_Uninitialized_backout_al@V?$allocator@UPart@cpr@@@std@@@std@@QEAA@XZ
	??1?$basic_istringstream@DU?$char_traits@D@std@@V?$allocator@D@2@@std@@UEAA@XZ
	??1?$basic_string@DU?$char_traits@D@std@@V?$allocator@D@2@@std@@QEAA@XZ
	??1?$basic_stringbuf@DU?$char_traits@D@std@@V?$allocator@D@2@@std@@UEAA@XZ
	??1?$basic_stringstream@DU?$char_traits@D@std@@V?$allocator@D@2@@std@@UEAA@XZ
	??1?$map@V?$basic_string@DU?$char_traits@D@std@@V?$allocator@D@2@@std@@V12@UCaseInsensitiveCompare@cpr@@V?$allocator@U?$pair@$$CBV?$basic_string@DU?$char_traits@D@std@@V?$allocator@D@2@@std@@V12@@std@@@2@@std@@QEAA@XZ
	??1?$pair@$$CBV?$basic_string@DU?$char_traits@D@std@@V?$allocator@D@2@@std@@V12@@std@@QEAA@XZ
	??1?$shared_ptr@UCurlHolder@cpr@@@std@@QEAA@XZ
	??1?$vector@Ucurl_forms@@V?$allocator@Ucurl_forms@@@std@@@std@@QEAA@XZ
	??1?$vector@V?$basic_string@DU?$char_traits@D@std@@V?$allocator@D@2@@std@@V?$allocator@V?$basic_string@DU?$char_traits@D@std@@V?$allocator@D@2@@std@@@2@@std@@QEAA@XZ
	??1Cookies@cpr@@QEAA@XZ
	??1CurlHolder@cpr@@QEAA@XZ
	??1DebugCallback@cpr@@QEAA@XZ
	??1EncodedAuthentication@cpr@@UEAA@XZ
	??1Error@cpr@@QEAA@XZ
	??1HeaderCallback@cpr@@QEAA@XZ
	??1Impl@Session@cpr@@QEAA@XZ
	??1Pair@cpr@@QEAA@XZ
	??1Parameter@cpr@@QEAA@XZ
	??1Parameters@cpr@@QEAA@XZ
	??1ProgressCallback@cpr@@QEAA@XZ
	??1Proxies@cpr@@QEAA@XZ
	??1ProxyAuthentication@cpr@@QEAA@XZ
	??1ReadCallback@cpr@@QEAA@XZ
	??1Session@cpr@@QEAA@XZ
	??1Url@cpr@@UEAA@XZ
	??1WriteCallback@cpr@@QEAA@XZ
	??1_Ref_count_base@std@@UEAA@XZ
	??1_Sentry_base@?$basic_istream@DU?$char_traits@D@std@@@std@@QEAA@XZ
	??1_Sentry_base@?$basic_ostream@DU?$char_traits@D@std@@@std@@QEAA@XZ
	??1bad_array_new_length@std@@UEAA@XZ
	??1exception@std@@UEAA@XZ
	??1invalid_argument@std@@UEAA@XZ
	??1overflow_error@std@@UEAA@XZ
	??1sentry@?$basic_istream@DU?$char_traits@D@std@@@std@@QEAA@XZ
	??1sentry@?$basic_ostream@DU?$char_traits@D@std@@@std@@QEAA@XZ
	??1underflow_error@std@@UEAA@XZ
	??4?$function@$$A6AXW4InfoType@DebugCallback@cpr@@V?$basic_string@DU?$char_traits@D@std@@V?$allocator@D@2@@std@@_J@Z@std@@QEAAAEAV01@AEBV01@@Z
	??4?$function@$$A6A_NPEADAEA_K_J@Z@std@@QEAAAEAV01@AEBV01@@Z
	??4?$function@$$A6A_NV?$basic_string@DU?$char_traits@D@std@@V?$allocator@D@2@@std@@_J@Z@std@@QEAAAEAV01@AEBV01@@Z
	??4?$function@$$A6A_N_J0000@Z@std@@QEAAAEAV01@AEBV01@@Z
	??4Session@cpr@@QEAAAEAV01@$$QEAV01@@Z
	??ACookies@cpr@@QEAAAEAV?$basic_string@DU?$char_traits@D@std@@V?$allocator@D@2@@std@@AEBV23@@Z
	??AProxies@cpr@@QEAAAEBV?$basic_string@DU?$char_traits@D@std@@V?$allocator@D@2@@std@@AEBV23@@Z
	??AProxyAuthentication@cpr@@QEAAPEBDAEBV?$basic_string@DU?$char_traits@D@std@@V?$allocator@D@2@@std@@@Z
	??Icpr@@YA?AW4PostRedirectFlags@0@W410@0@Z
	??R?$less@V?$basic_string@DU?$char_traits@D@std@@V?$allocator@D@2@@std@@@std@@QEBA_NAEBV?$basic_string@DU?$char_traits@D@std@@V?$allocator@D@2@@1@0@Z
	??RCaseInsensitiveCompare@cpr@@QEBA_NAEBV?$basic_string@DU?$char_traits@D@std@@V?$allocator@D@2@@std@@0@Z
	??Scpr@@YA?AW4PostRedirectFlags@0@W410@@Z
	??Tcpr@@YA?AW4PostRedirectFlags@0@W410@0@Z
	??Ucpr@@YA?AW4PostRedirectFlags@0@W410@0@Z
	??_4cpr@@YAAEAW4PostRedirectFlags@0@AEAW410@W410@@Z
	??_5cpr@@YAAEAW4PostRedirectFlags@0@AEAW410@W410@@Z
	??_6cpr@@YAAEAW4PostRedirectFlags@0@AEAW410@W410@@Z
	??_D?$basic_istringstream@DU?$char_traits@D@std@@V?$allocator@D@2@@std@@QEAAXXZ
	??_D?$basic_stringstream@DU?$char_traits@D@std@@V?$allocator@D@2@@std@@QEAAXXZ
	?Add@?$CurlContainer@UPair@cpr@@@cpr@@QEAAXAEBUPair@2@@Z
	?Add@?$CurlContainer@UPair@cpr@@@cpr@@QEAAXAEBV?$initializer_list@UPair@cpr@@@std@@@Z
	?Add@?$CurlContainer@UParameter@cpr@@@cpr@@QEAAXAEBUParameter@2@@Z
	?Add@?$CurlContainer@UParameter@cpr@@@cpr@@QEAAXAEBV?$initializer_list@UParameter@cpr@@@std@@@Z
	?Complete@Impl@Session@cpr@@QEAA?AVResponse@3@W4CURLcode@@@Z
	?Complete@Session@cpr@@QEAA?AVResponse@2@W4CURLcode@@@Z
	?Delete@Impl@Session@cpr@@QEAA?AVResponse@3@XZ
	?Delete@Session@cpr@@QEAA?AVResponse@2@XZ
	?Download@Impl@Session@cpr@@QEAA?AVResponse@3@AEAV?$basic_ofstream@DU?$char_traits@D@std@@@std@@@Z
	?Download@Impl@Session@cpr@@QEAA?AVResponse@3@AEBVWriteCallback@3@@Z
	?Download@Session@cpr@@QEAA?AVResponse@2@AEAV?$basic_ofstream@DU?$char_traits@D@std@@@std@@@Z
	?Download@Session@cpr@@QEAA?AVResponse@2@AEBVWriteCallback@2@@Z
	?Get@Impl@Session@cpr@@QEAA?AVResponse@3@XZ
	?Get@Session@cpr@@QEAA?AVResponse@2@XZ
	?GetAuthString@Authentication@cpr@@UEBAPEBDXZ
	?GetAuthString@EncodedAuthentication@cpr@@QEBAPEBDXZ
	?GetCertInfo@Response@cpr@@QEAA?AV?$vector@V?$basic_string@DU?$char_traits@D@std@@V?$allocator@D@2@@std@@V?$allocator@V?$basic_string@DU?$char_traits@D@std@@V?$allocator@D@2@@std@@@2@@std@@XZ
	?GetContent@?$CurlContainer@UPair@cpr@@@cpr@@QEBA?BV?$basic_string@DU?$char_traits@D@std@@V?$allocator@D@2@@std@@AEBUCurlHolder@2@@Z
	?GetContent@?$CurlContainer@UParameter@cpr@@@cpr@@QEBA?BV?$basic_string@DU?$char_traits@D@std@@V?$allocator@D@2@@std@@AEBUCurlHolder@2@@Z
	?GetCurlHolder@Impl@Session@cpr@@QEAA?AV?$shared_ptr@UCurlHolder@cpr@@@std@@XZ
	?GetCurlHolder@Session@cpr@@QEAA?AV?$shared_ptr@UCurlHolder@cpr@@@std@@XZ
	?GetDownloadFileLength@Impl@Session@cpr@@QEAA_JXZ
	?GetDownloadFileLength@Session@cpr@@QEAA_JXZ
	?GetEncoded@Cookies@cpr@@QEBA?AV?$basic_string@DU?$char_traits@D@std@@V?$allocator@D@2@@std@@AEBUCurlHolder@2@@Z
	?GetToken@Bearer@cpr@@UEBAPEBDXZ
	?GetUnixSocketString@UnixSocket@cpr@@QEBAPEBDXZ
	?Head@Impl@Session@cpr@@QEAA?AVResponse@3@XZ
	?Head@Session@cpr@@QEAA?AVResponse@2@XZ
	?Milliseconds@Timeout@cpr@@QEBAJXZ
	?Options@Impl@Session@cpr@@QEAA?AVResponse@3@XZ
	?Options@Session@cpr@@QEAA?AVResponse@2@XZ
	?Patch@Impl@Session@cpr@@QEAA?AVResponse@3@XZ
	?Patch@Session@cpr@@QEAA?AVResponse@2@XZ
	?Post@Impl@Session@cpr@@QEAA?AVResponse@3@XZ
	?Post@Session@cpr@@QEAA?AVResponse@2@XZ
	?PrepareDelete@Impl@Session@cpr@@QEAAXXZ
	?PrepareDelete@Session@cpr@@QEAAXXZ
	?PrepareGet@Impl@Session@cpr@@QEAAXXZ
	?PrepareGet@Session@cpr@@QEAAXXZ
	?PrepareHead@Impl@Session@cpr@@QEAAXXZ
	?PrepareHead@Session@cpr@@QEAAXXZ
	?PrepareOptions@Impl@Session@cpr@@QEAAXXZ
	?PrepareOptions@Session@cpr@@QEAAXXZ
	?PreparePatch@Impl@Session@cpr@@QEAAXXZ
	?PreparePatch@Session@cpr@@QEAAXXZ
	?PreparePost@Impl@Session@cpr@@QEAAXXZ
	?PreparePost@Session@cpr@@QEAAXXZ
	?PreparePut@Impl@Session@cpr@@QEAAXXZ
	?PreparePut@Session@cpr@@QEAAXXZ
	?Put@Impl@Session@cpr@@QEAA?AVResponse@3@XZ
	?Put@Session@cpr@@QEAA?AVResponse@2@XZ
	?ResponseStringReserve@Impl@Session@cpr@@QEAAX_K@Z
	?ResponseStringReserve@Session@cpr@@QEAAX_K@Z
	?SetAuth@Impl@Session@cpr@@QEAAXAEBVAuthentication@3@@Z
	?SetAuth@Session@cpr@@QEAAXAEBVAuthentication@2@@Z
	?SetBearer@Impl@Session@cpr@@QEAAXAEBVBearer@3@@Z
	?SetBody@Impl@Session@cpr@@QEAAX$$QEAVBody@3@@Z
	?SetBody@Impl@Session@cpr@@QEAAXAEBVBody@3@@Z
	?SetBody@Session@cpr@@QEAAX$$QEAVBody@2@@Z
	?SetBody@Session@cpr@@QEAAXAEBVBody@2@@Z
	?SetConnectTimeout@Impl@Session@cpr@@QEAAXAEBVConnectTimeout@3@@Z
	?SetConnectTimeout@Session@cpr@@QEAAXAEBVConnectTimeout@2@@Z
	?SetCookies@Impl@Session@cpr@@QEAAXAEBVCookies@3@@Z
	?SetCookies@Session@cpr@@QEAAXAEBVCookies@2@@Z
	?SetDebugCallback@Impl@Session@cpr@@QEAAXAEBVDebugCallback@3@@Z
	?SetDebugCallback@Session@cpr@@QEAAXAEBVDebugCallback@2@@Z
	?SetDigest@Impl@Session@cpr@@QEAAXAEBVDigest@3@@Z
	?SetDigest@Session@cpr@@QEAAXAEBVDigest@2@@Z
	?SetHeader@Impl@Session@cpr@@QEAAXAEBV?$map@V?$basic_string@DU?$char_traits@D@std@@V?$allocator@D@2@@std@@V12@UCaseInsensitiveCompare@cpr@@V?$allocator@U?$pair@$$CBV?$basic_string@DU?$char_traits@D@std@@V?$allocator@D@2@@std@@V12@@std@@@2@@std@@@Z
	?SetHeader@Session@cpr@@QEAAXAEBV?$map@V?$basic_string@DU?$char_traits@D@std@@V?$allocator@D@2@@std@@V12@UCaseInsensitiveCompare@cpr@@V?$allocator@U?$pair@$$CBV?$basic_string@DU?$char_traits@D@std@@V?$allocator@D@2@@std@@V12@@std@@@2@@std@@@Z
	?SetHeaderCallback@Impl@Session@cpr@@QEAAXAEBVHeaderCallback@3@@Z
	?SetHeaderCallback@Session@cpr@@QEAAXAEBVHeaderCallback@2@@Z
	?SetHeaderInternal@Impl@Session@cpr@@AEAAXXZ
	?SetHttpVersion@Impl@Session@cpr@@QEAAXAEBVHttpVersion@3@@Z
	?SetHttpVersion@Session@cpr@@QEAAXAEBVHttpVersion@2@@Z
	?SetInterface@Impl@Session@cpr@@QEAAXAEBVInterface@3@@Z
	?SetInterface@Session@cpr@@QEAAXAEBVInterface@2@@Z
	?SetLimitRate@Impl@Session@cpr@@QEAAXAEBVLimitRate@3@@Z
	?SetLowSpeed@Impl@Session@cpr@@QEAAXAEBVLowSpeed@3@@Z
	?SetLowSpeed@Session@cpr@@QEAAXAEBVLowSpeed@2@@Z
	?SetMultipart@Impl@Session@cpr@@QEAAX$$QEAVMultipart@3@@Z
	?SetMultipart@Impl@Session@cpr@@QEAAXAEBVMultipart@3@@Z
	?SetMultipart@Session@cpr@@QEAAX$$QEAVMultipart@2@@Z
	?SetMultipart@Session@cpr@@QEAAXAEBVMultipart@2@@Z
	?SetNTLM@Impl@Session@cpr@@QEAAXAEBVNTLM@3@@Z
	?SetNTLM@Session@cpr@@QEAAXAEBVNTLM@2@@Z
	?SetOption@Session@cpr@@QEAAX$$QEAVBody@2@@Z
	?SetOption@Session@cpr@@QEAAX$$QEAVMultipart@2@@Z
	?SetOption@Session@cpr@@QEAAX$$QEAVParameters@2@@Z
	?SetOption@Session@cpr@@QEAAX$$QEAVPayload@2@@Z
	?SetOption@Session@cpr@@QEAAX$$QEAVProxies@2@@Z
	?SetOption@Session@cpr@@QEAAX$$QEAVProxyAuthentication@2@@Z
	?SetOption@Session@cpr@@QEAAXAEBUSslOptions@2@@Z
	?SetOption@Session@cpr@@QEAAXAEBV?$map@V?$basic_string@DU?$char_traits@D@std@@V?$allocator@D@2@@std@@V12@UCaseInsensitiveCompare@cpr@@V?$allocator@U?$pair@$$CBV?$basic_string@DU?$char_traits@D@std@@V?$allocator@D@2@@std@@V12@@std@@@2@@std@@@Z
	?SetOption@Session@cpr@@QEAAXAEBVAuthentication@2@@Z
	?SetOption@Session@cpr@@QEAAXAEBVBearer@2@@Z
	?SetOption@Session@cpr@@QEAAXAEBVBody@2@@Z
	?SetOption@Session@cpr@@QEAAXAEBVConnectTimeout@2@@Z
	?SetOption@Session@cpr@@QEAAXAEBVCookies@2@@Z
	?SetOption@Session@cpr@@QEAAXAEBVDebugCallback@2@@Z
	?SetOption@Session@cpr@@QEAAXAEBVDigest@2@@Z
	?SetOption@Session@cpr@@QEAAXAEBVHeaderCallback@2@@Z
	?SetOption@Session@cpr@@QEAAXAEBVHttpVersion@2@@Z
	?SetOption@Session@cpr@@QEAAXAEBVInterface@2@@Z
	?SetOption@Session@cpr@@QEAAXAEBVLimitRate@2@@Z
	?SetOption@Session@cpr@@QEAAXAEBVLowSpeed@2@@Z
	?SetOption@Session@cpr@@QEAAXAEBVMultipart@2@@Z
	?SetOption@Session@cpr@@QEAAXAEBVNTLM@2@@Z
	?SetOption@Session@cpr@@QEAAXAEBVParameters@2@@Z
	?SetOption@Session@cpr@@QEAAXAEBVPayload@2@@Z
	?SetOption@Session@cpr@@QEAAXAEBVProgressCallback@2@@Z
	?SetOption@Session@cpr@@QEAAXAEBVProxies@2@@Z
	?SetOption@Session@cpr@@QEAAXAEBVProxyAuthentication@2@@Z
	?SetOption@Session@cpr@@QEAAXAEBVRange@2@@Z
	?SetOption@Session@cpr@@QEAAXAEBVReadCallback@2@@Z
	?SetOption@Session@cpr@@QEAAXAEBVRedirect@2@@Z
	?SetOption@Session@cpr@@QEAAXAEBVTimeout@2@@Z
	?SetOption@Session@cpr@@QEAAXAEBVUnixSocket@2@@Z
	?SetOption@Session@cpr@@QEAAXAEBVUrl@2@@Z
	?SetOption@Session@cpr@@QEAAXAEBVUserAgent@2@@Z
	?SetOption@Session@cpr@@QEAAXAEBVVerbose@2@@Z
	?SetOption@Session@cpr@@QEAAXAEBVVerifySsl@2@@Z
	?SetOption@Session@cpr@@QEAAXAEBVWriteCallback@2@@Z
	?SetParameters@Impl@Session@cpr@@QEAAX$$QEAVParameters@3@@Z
	?SetParameters@Impl@Session@cpr@@QEAAXAEBVParameters@3@@Z
	?SetParameters@Session@cpr@@QEAAX$$QEAVParameters@2@@Z
	?SetParameters@Session@cpr@@QEAAXAEBVParameters@2@@Z
	?SetPayload@Impl@Session@cpr@@QEAAX$$QEAVPayload@3@@Z
	?SetPayload@Impl@Session@cpr@@QEAAXAEBVPayload@3@@Z
	?SetPayload@Session@cpr@@QEAAX$$QEAVPayload@2@@Z
	?SetPayload@Session@cpr@@QEAAXAEBVPayload@2@@Z
	?SetProgressCallback@Impl@Session@cpr@@QEAAXAEBVProgressCallback@3@@Z
	?SetProgressCallback@Session@cpr@@QEAAXAEBVProgressCallback@2@@Z
	?SetProxies@Impl@Session@cpr@@QEAAX$$QEAVProxies@3@@Z
	?SetProxies@Impl@Session@cpr@@QEAAXAEBVProxies@3@@Z
	?SetProxies@Session@cpr@@QEAAX$$QEAVProxies@2@@Z
	?SetProxies@Session@cpr@@QEAAXAEBVProxies@2@@Z
	?SetProxyAuth@Impl@Session@cpr@@QEAAX$$QEAVProxyAuthentication@3@@Z
	?SetProxyAuth@Impl@Session@cpr@@QEAAXAEBVProxyAuthentication@3@@Z
	?SetProxyAuth@Session@cpr@@QEAAX$$QEAVProxyAuthentication@2@@Z
	?SetProxyAuth@Session@cpr@@QEAAXAEBVProxyAuthentication@2@@Z
	?SetRange@Impl@Session@cpr@@QEAAXAEBVRange@3@@Z
	?SetRange@Session@cpr@@QEAAXAEBVRange@2@@Z
	?SetReadCallback@Impl@Session@cpr@@QEAAXAEBVReadCallback@3@@Z
	?SetReadCallback@Session@cpr@@QEAAXAEBVReadCallback@2@@Z
	?SetRedirect@Impl@Session@cpr@@QEAAXAEBVRedirect@3@@Z
	?SetRedirect@Session@cpr@@QEAAXAEBVRedirect@2@@Z
	?SetSslOptions@Impl@Session@cpr@@QEAAXAEBUSslOptions@3@@Z
	?SetSslOptions@Session@cpr@@QEAAXAEBUSslOptions@2@@Z
	?SetTimeout@Impl@Session@cpr@@QEAAXAEBVTimeout@3@@Z
	?SetTimeout@Session@cpr@@QEAAXAEBVTimeout@2@@Z
	?SetUnixSocket@Impl@Session@cpr@@QEAAXAEBVUnixSocket@3@@Z
	?SetUnixSocket@Session@cpr@@QEAAXAEBVUnixSocket@2@@Z
	?SetUrl@Impl@Session@cpr@@QEAAXAEBVUrl@3@@Z
	?SetUrl@Session@cpr@@QEAAXAEBVUrl@2@@Z
	?SetUserAgent@Impl@Session@cpr@@QEAAXAEBVUserAgent@3@@Z
	?SetUserAgent@Session@cpr@@QEAAXAEBVUserAgent@2@@Z
	?SetVerbose@Impl@Session@cpr@@QEAAXAEBVVerbose@3@@Z
	?SetVerbose@Session@cpr@@QEAAXAEBVVerbose@2@@Z
	?SetVerifySsl@Impl@Session@cpr@@QEAAXAEBVVerifySsl@3@@Z
	?SetVerifySsl@Session@cpr@@QEAAXAEBVVerifySsl@2@@Z
	?SetWriteCallback@Impl@Session@cpr@@QEAAXAEBVWriteCallback@3@@Z
	?SetWriteCallback@Session@cpr@@QEAAXAEBVWriteCallback@2@@Z
	?UpdateHeader@Impl@Session@cpr@@QEAAXAEBV?$map@V?$basic_string@DU?$char_traits@D@std@@V?$allocator@D@2@@std@@V12@UCaseInsensitiveCompare@cpr@@V?$allocator@U?$pair@$$CBV?$basic_string@DU?$char_traits@D@std@@V?$allocator@D@2@@std@@V12@@std@@@2@@std@@@Z
	?UpdateHeader@Session@cpr@@QEAAXAEBV?$map@V?$basic_string@DU?$char_traits@D@std@@V?$allocator@D@2@@std@@V12@UCaseInsensitiveCompare@cpr@@V?$allocator@U?$pair@$$CBV?$basic_string@DU?$char_traits@D@std@@V?$allocator@D@2@@std@@V12@@std@@@2@@std@@@Z
	?_Change_array@?$vector@UPair@cpr@@V?$allocator@UPair@cpr@@@std@@@std@@AEAAXQEAUPair@cpr@@_K1@Z
	?_Change_array@?$vector@UParameter@cpr@@V?$allocator@UParameter@cpr@@@std@@@std@@AEAAXQEAUParameter@cpr@@_K1@Z
	?_Delete_this@?$_Ref_count@UCurlHolder@cpr@@@std@@EEAAXXZ
	?_Destroy@?$_Ref_count@UCurlHolder@cpr@@@std@@EEAAXXZ
	?_Get_deleter@_Ref_count_base@std@@UEBAPEAXAEBVtype_info@@@Z
	?_Getal@?$_Tree@V?$_Tmap_traits@V?$basic_string@DU?$char_traits@D@std@@V?$allocator@D@2@@std@@V12@U?$less@V?$basic_string@DU?$char_traits@D@std@@V?$allocator@D@2@@std@@@2@V?$allocator@U?$pair@$$CBV?$basic_string@DU?$char_traits@D@std@@V?$allocator@D@2@@std@@V12@@std@@@2@$0A@@std@@@std@@IEAAAEAV?$allocator@U?$_Tree_node@U?$pair@$$CBV?$basic_string@DU?$char_traits@D@std@@V?$allocator@D@2@@std@@V12@@std@@PEAX@std@@@2@XZ
	?_Getal@?$_Tree@V?$_Tmap_traits@V?$basic_string@DU?$char_traits@D@std@@V?$allocator@D@2@@std@@V12@UCaseInsensitiveCompare@cpr@@V?$allocator@U?$pair@$$CBV?$basic_string@DU?$char_traits@D@std@@V?$allocator@D@2@@std@@V12@@std@@@2@$0A@@std@@@std@@IEAAAEAV?$allocator@U?$_Tree_node@U?$pair@$$CBV?$basic_string@DU?$char_traits@D@std@@V?$allocator@D@2@@std@@V12@@std@@PEAX@std@@@2@XZ
	?_Getal@?$_Tree@V?$_Tmap_traits@V?$basic_string@DU?$char_traits@D@std@@V?$allocator@D@2@@std@@VEncodedAuthentication@cpr@@U?$less@V?$basic_string@DU?$char_traits@D@std@@V?$allocator@D@2@@std@@@2@V?$allocator@U?$pair@$$CBV?$basic_string@DU?$char_traits@D@std@@V?$allocator@D@2@@std@@VEncodedAuthentication@cpr@@@std@@@2@$0A@@std@@@std@@IEAAAEAV?$allocator@U?$_Tree_node@U?$pair@$$CBV?$basic_string@DU?$char_traits@D@std@@V?$allocator@D@2@@std@@VEncodedAuthentication@cpr@@@std@@PEAX@std@@@2@XZ
	?_Insert_node@?$_Tree_val@U?$_Tree_simple_types@U?$pair@$$CBV?$basic_string@DU?$char_traits@D@std@@V?$allocator@D@2@@std@@V12@@std@@@std@@@std@@QEAAPEAU?$_Tree_node@U?$pair@$$CBV?$basic_string@DU?$char_traits@D@std@@V?$allocator@D@2@@std@@V12@@std@@PEAX@2@U?$_Tree_id@PEAU?$_Tree_node@U?$pair@$$CBV?$basic_string@DU?$char_traits@D@std@@V?$allocator@D@2@@std@@V12@@std@@PEAX@std@@@2@QEAU32@@Z
	?_Insert_node@?$_Tree_val@U?$_Tree_simple_types@U?$pair@$$CBV?$basic_string@DU?$char_traits@D@std@@V?$allocator@D@2@@std@@VEncodedAuthentication@cpr@@@std@@@std@@@std@@QEAAPEAU?$_Tree_node@U?$pair@$$CBV?$basic_string@DU?$char_traits@D@std@@V?$allocator@D@2@@std@@VEncodedAuthentication@cpr@@@std@@PEAX@2@U?$_Tree_id@PEAU?$_Tree_node@U?$pair@$$CBV?$basic_string@DU?$char_traits@D@std@@V?$allocator@D@2@@std@@VEncodedAuthentication@cpr@@@std@@PEAX@std@@@2@QEAU32@@Z
	?_Maklocwcs@std@@YAPEA_WPEB_W@Z
	?_Throw_bad_array_new_length@std@@YAXXZ
	?_Throw_tree_length_error@std@@YAXXZ
	?_Tidy@?$vector@UPair@cpr@@V?$allocator@UPair@cpr@@@std@@@std@@AEAAXXZ
	?_Tidy@?$vector@UParameter@cpr@@V?$allocator@UParameter@cpr@@@std@@@std@@AEAAXXZ
	?_Tidy@?$vector@UPart@cpr@@V?$allocator@UPart@cpr@@@std@@@std@@AEAAXXZ
	?_Xlen_string@std@@YAXXZ
	?_Xlength@?$vector@UPair@cpr@@V?$allocator@UPair@cpr@@@std@@@std@@CAXXZ
	?_Xlength@?$vector@UParameter@cpr@@V?$allocator@UParameter@cpr@@@std@@@std@@CAXXZ
	?_Xlength@?$vector@UPart@cpr@@V?$allocator@UPart@cpr@@@std@@@std@@CAXXZ
	?_Xlength@?$vector@Ucurl_forms@@V?$allocator@Ucurl_forms@@@std@@@std@@CAXXZ
	?_Xlength@?$vector@V?$basic_string@DU?$char_traits@D@std@@V?$allocator@D@2@@std@@V?$allocator@V?$basic_string@DU?$char_traits@D@std@@V?$allocator@D@2@@std@@@2@@std@@CAXXZ
	?_Xran@?$_String_val@U?$_Simple_types@D@std@@@std@@SAXXZ
	?allocate@?$allocator@D@std@@QEAAPEAD_K@Z
	?allocate@?$allocator@UPair@cpr@@@std@@QEAAPEAUPair@cpr@@_K@Z
	?allocate@?$allocator@UParameter@cpr@@@std@@QEAAPEAUParameter@cpr@@_K@Z
	?any@cpr@@YA_NW4PostRedirectFlags@1@@Z
	?append@?$basic_string@DU?$char_traits@D@std@@V?$allocator@D@2@@std@@QEAAAEAV12@QEBD_K@Z
	?assign@?$basic_string@DU?$char_traits@D@std@@V?$allocator@D@2@@std@@QEAAAEAV12@QEBD_K@Z
	?begin@Cookies@cpr@@QEAA?AV?$_Tree_iterator@V?$_Tree_val@U?$_Tree_simple_types@U?$pair@$$CBV?$basic_string@DU?$char_traits@D@std@@V?$allocator@D@2@@std@@V12@@std@@@std@@@std@@@std@@XZ
	?begin@Cookies@cpr@@QEBA?AV?$_Tree_const_iterator@V?$_Tree_val@U?$_Tree_simple_types@U?$pair@$$CBV?$basic_string@DU?$char_traits@D@std@@V?$allocator@D@2@@std@@V12@@std@@@std@@@std@@@std@@XZ
	?cbegin@Cookies@cpr@@QEBA?AV?$_Tree_const_iterator@V?$_Tree_val@U?$_Tree_simple_types@U?$pair@$$CBV?$basic_string@DU?$char_traits@D@std@@V?$allocator@D@2@@std@@V12@@std@@@std@@@std@@@std@@XZ
	?cend@Cookies@cpr@@QEBA?AV?$_Tree_const_iterator@V?$_Tree_val@U?$_Tree_simple_types@U?$pair@$$CBV?$basic_string@DU?$char_traits@D@std@@V?$allocator@D@2@@std@@V12@@std@@@std@@@std@@@std@@XZ
	?count@?$duration@_JU?$ratio@$00$0DOI@@std@@@chrono@std@@QEBA_JXZ
	?deallocate@?$allocator@D@std@@QEAAXQEAD_K@Z
	?deallocate@?$allocator@UPair@cpr@@@std@@QEAAXQEAUPair@cpr@@_K@Z
	?deallocate@?$allocator@UParameter@cpr@@@std@@QEAAXQEAUParameter@cpr@@_K@Z
	?deallocate@?$allocator@Ucurl_forms@@@std@@QEAAXQEAUcurl_forms@@_K@Z
	?deallocate@?$allocator@V?$basic_string@DU?$char_traits@D@std@@V?$allocator@D@2@@std@@@std@@QEAAXQEAV?$basic_string@DU?$char_traits@D@std@@V?$allocator@D@2@@2@_K@Z
	?debugUserFunction@util@cpr@@YAHPEAXW4curl_infotype@@PEAD_KPEBVDebugCallback@2@@Z
	?end@Cookies@cpr@@QEAA?AV?$_Tree_iterator@V?$_Tree_val@U?$_Tree_simple_types@U?$pair@$$CBV?$basic_string@DU?$char_traits@D@std@@V?$allocator@D@2@@std@@V12@@std@@@std@@@std@@@std@@XZ
	?end@Cookies@cpr@@QEBA?AV?$_Tree_const_iterator@V?$_Tree_val@U?$_Tree_simple_types@U?$pair@$$CBV?$basic_string@DU?$char_traits@D@std@@V?$allocator@D@2@@std@@V12@@std@@@std@@@std@@@std@@XZ
	?find_first_of@?$basic_string@DU?$char_traits@D@std@@V?$allocator@D@2@@std@@QEBA_KQEBD_K@Z
	?getErrorCodeForCurlError@Error@cpr@@CA?AW4ErrorCode@2@H@Z
	?has@Proxies@cpr@@QEBA_NAEBV?$basic_string@DU?$char_traits@D@std@@V?$allocator@D@2@@std@@@Z
	?has@ProxyAuthentication@cpr@@QEBA_NAEBV?$basic_string@DU?$char_traits@D@std@@V?$allocator@D@2@@std@@@Z
	?headerUserFunction@util@cpr@@YA_KPEAD_K1PEBVHeaderCallback@2@@Z
	?makeDownloadRequest@Impl@Session@cpr@@AEAA?AVResponse@3@XZ
	?makeRequest@Impl@Session@cpr@@AEAA?AVResponse@3@XZ
	?overflow@?$basic_stringbuf@DU?$char_traits@D@std@@V?$allocator@D@2@@std@@MEAAHH@Z
	?parseCookies@util@cpr@@YA?AVCookies@2@PEAUcurl_slist@@@Z
	?parseHeader@util@cpr@@YA?AV?$map@V?$basic_string@DU?$char_traits@D@std@@V?$allocator@D@2@@std@@V12@UCaseInsensitiveCompare@cpr@@V?$allocator@U?$pair@$$CBV?$basic_string@DU?$char_traits@D@std@@V?$allocator@D@2@@std@@V12@@std@@@2@@std@@AEBV?$basic_string@DU?$char_traits@D@std@@V?$allocator@D@2@@4@PEAV54@1@Z
	?pbackfail@?$basic_stringbuf@DU?$char_traits@D@std@@V?$allocator@D@2@@std@@MEAAHH@Z
	?prepareCommon@Impl@Session@cpr@@AEAAXXZ
	?progressUserFunction@util@cpr@@YAHPEBVProgressCallback@2@_J111@Z
	?readUserFunction@util@cpr@@YA_KPEAD_K1PEBVReadCallback@2@@Z
	?seekoff@?$basic_stringbuf@DU?$char_traits@D@std@@V?$allocator@D@2@@std@@MEAA?AV?$fpos@U_Mbstatet@@@2@_JHH@Z
	?seekpos@?$basic_stringbuf@DU?$char_traits@D@std@@V?$allocator@D@2@@std@@MEAA?AV?$fpos@U_Mbstatet@@@2@V32@H@Z
	?split@util@cpr@@YA?AV?$vector@V?$basic_string@DU?$char_traits@D@std@@V?$allocator@D@2@@std@@V?$allocator@V?$basic_string@DU?$char_traits@D@std@@V?$allocator@D@2@@std@@@2@@std@@AEBV?$basic_string@DU?$char_traits@D@std@@V?$allocator@D@2@@4@D@Z
	?to_string@std@@YA?AV?$basic_string@DU?$char_traits@D@std@@V?$allocator@D@2@@1@_J@Z
	?underflow@?$basic_stringbuf@DU?$char_traits@D@std@@V?$allocator@D@2@@std@@MEAAHXZ
	?urlDecode@CurlHolder@cpr@@QEBA?AV?$basic_string@DU?$char_traits@D@std@@V?$allocator@D@2@@std@@AEBV34@@Z
	?urlDecode@util@cpr@@YA?AV?$basic_string@DU?$char_traits@D@std@@V?$allocator@D@2@@std@@AEBV34@@Z
	?urlEncode@CurlHolder@cpr@@QEBA?AV?$basic_string@DU?$char_traits@D@std@@V?$allocator@D@2@@std@@AEBV34@@Z
	?urlEncode@util@cpr@@YA?AV?$basic_string@DU?$char_traits@D@std@@V?$allocator@D@2@@std@@AEBV34@@Z
	?what@exception@std@@UEBAPEBDXZ
	?writeFileFunction@util@cpr@@YA_KPEAD_K1PEAV?$basic_ofstream@DU?$char_traits@D@std@@@std@@@Z
	?writeFunction@util@cpr@@YA_KPEAD_K1PEAV?$basic_string@DU?$char_traits@D@std@@V?$allocator@D@2@@std@@@Z
	?writeUserFunction@util@cpr@@YA_KPEAD_K1PEBVWriteCallback@2@@Z
